MPASM 5.86             NEWPIC_8B_GENERAL.ASM   2-18-2022  17:38:54         PAGE  1


LOC  OBJECT CODE     LINE SOURCE TEXT
  VALUE

Warning[205]: Found directive in column 1. (LIST)
Warning[215]: Processor superseded by command line.  Verify processor symbol.
                      00001 LIST P=PIC18F4321   F=INHX32
                      00002 #include <p18f4321.inc>
                      00001         LIST
                      00002 
                      00003 ;==========================================================================
                      00004 ; Build date : Oct 24 2019
                      00005 ;  MPASM PIC18F4321 processor include
                      00006 ; 
                      00007 ;  (c) Copyright 1999-2019 Microchip Technology, All rights reserved
                      00008 ;==========================================================================
                      00009 
                      01455         LIST
                      00003 
                      00004     CONFIG OSC=HSPLL        
                      00005     CONFIG PBADEN=DIG       ;PORTB com a Digital (el posem a 0)
                      00006     CONFIG WDT=OFF          ;Desactivem el Watch Dog Timer
                      00007     CONFIG LVP=OFF          ;Evitar resets eusart
                      00008 ;--------------------------------DECLARACIO_VARS--------------------------------
  00000000            00009 SEVEN_SEG_C EQU 0X00
  00000001            00010 SEVEN_SEG_D EQU 0X01
  00000002            00011 SEVEN_SEG_E EQU 0X02
  00000003            00012 SEVEN_SEG_F EQU 0X03
  00000004            00013 SEVEN_SEG_G EQU 0X04
  00000005            00014 SEVEN_SEG_A EQU 0X05
  00000006            00015 SEVEN_SEG_B EQU 0X06
  00000007            00016 SEVEN_SEG_c EQU 0X07
  00000008            00017 tmp_timer EQU 0x08
  0000000A            00018 MODE_ACTUAL EQU 0x0A
                      00019  ; mode: (0s per defecte al init)
                      00020  ; b7[0:manual, 1:automatic]
                      00021  ; b6[0:no s'ha rebut la P encara pero estem en auto, 1:s'ha rebut la P]
                      00022  ; b5[0: mode manual joystick; 1: mode manual java]
                      00023  ;
  0000000B            00024 EUSART_INPUT EQU 0x0B
  0000000C            00025 tmp3 EQU 0x0C
  0000000D            00026 tmp4 EQU 0x0D
  0000000E            00027 VAR_CONVER EQU 0X0E
  0000000F            00028 VAR_COMP EQU 0X0F
  00000010            00029 PWM_VAR EQU 0X10
  00000011            00030 PWM_AUX EQU 0X11
  00000012            00031 COMPT_GRAUS EQU 0X12
                      00032 
                      00033 
                      00034 
                      00035 
                      00036 
                      00037     ORG 0x000
000000 EF?? F???      00038     GOTO MAIN
                      00039     ORG 0x008
000008 EF?? F???      00040     GOTO HIGH_RSI
                      00041     ORG 0x018
MPASM 5.86             NEWPIC_8B_GENERAL.ASM   2-18-2022  17:38:54         PAGE  2


LOC  OBJECT CODE     LINE SOURCE TEXT
  VALUE

000018 0011           00042     RETFIE FAST
                      00043 ;-----------------------------------HIGH_RSI------------------------------------
00001A                00044 HIGH_RSI
00001A B4F2           00045     BTFSC INTCON, TMR0IF, 0
00001C EC?? F???      00046     CALL ACTION_TMR 
000020 0011           00047     RETFIE FAST
                      00048 ;---------------------------------CONFIG I INITS--------------------------------
000022                00049 CONFIG_PORTS
000022 0E03           00050     MOVLW b'00000011'
000024 6E92           00051     MOVWF TRISA,0
000026 9489           00052     BCF LATA,2,0
000028 9689           00053     BCF LATA,3,0
                      00054     
00002A 8093           00055     BSF TRISB, 0, 0
00002C 8293           00056     BSF TRISB, 1, 0
00002E 8493           00057     BSF TRISB, 2, 0
000030 8693           00058     BSF TRISB, 3, 0
000032 8893           00059     BSF TRISB, 4, 0
                      00060     
000034 6A95           00061     CLRF TRISD,0
000036 6A8C           00062     CLRF LATD,0
                      00063     
000038 0EC0           00064     MOVLW b'11000000'
00003A 6E94           00065     MOVWF TRISC,0
                      00066     
00003C 908B           00067     BCF LATC,0,0
00003E 928B           00068     BCF LATC,1,0
000040 948B           00069     BCF LATC,2,0
000042 968B           00070     BCF LATC,3,0
000044 0012           00071     RETURN
                      00072     
000046                00073 INIT_VARS
000046 0E33           00074     MOVLW b'00110011'
000048 6E00           00075     MOVWF SEVEN_SEG_C,0
00004A 0E4F           00076     MOVLW b'01001111'
00004C 6E01           00077     MOVWF SEVEN_SEG_D,0
00004E 0E3B           00078     MOVLW b'00111011'
000050 6E02           00079     MOVWF SEVEN_SEG_E,0
000052 0E39           00080     MOVLW b'00111001'
000054 6E03           00081     MOVWF SEVEN_SEG_F
000056 0E7E           00082     MOVLW b'01111110'
000058 6E04           00083     MOVWF SEVEN_SEG_G
00005A 0E7D           00084     MOVLW b'01111101'
00005C 6E05           00085     MOVWF SEVEN_SEG_A
00005E 0E1F           00086     MOVLW b'00011111'
000060 6E06           00087     MOVWF SEVEN_SEG_B
000062 0E0B           00088     MOVLW b'00001011'
000064 6E07           00089     MOVWF SEVEN_SEG_c
                      00090     
000066 6A0A           00091     CLRF MODE_ACTUAL,0
                      00092     
000068 0E27           00093     MOVLW .39
00006A 6E10           00094     MOVWF PWM_VAR,0
MPASM 5.86             NEWPIC_8B_GENERAL.ASM   2-18-2022  17:38:54         PAGE  3


LOC  OBJECT CODE     LINE SOURCE TEXT
  VALUE

00006C 0012           00095     RETURN
                      00096     
00006E                00097 INIT_EUSART
00006E 0E24           00098     movlw b'00100100'
000070 6EAC           00099     movwf TXSTA,0
000072 0E90           00100     movlw b'10010000'
000074 6EAB           00101     movwf RCSTA,0
000076 0E08           00102     movlw b'00001000'
000078 6EB8           00103     movwf BAUDCON,0
00007A 0E04           00104     movlw HIGH(.1040)
00007C 6EB0           00105     movwf SPBRGH,0
00007E 0E10           00106     movlw LOW(.1040)
000080 6EAF           00107     movwf SPBRG,0     
                      00108     
000082                00109 CONFIG_ADC
000082 80C2           00110     BSF ADCON0, ADON, 0 ;Converter module enabled.
000084 0E0D           00111     MOVLW b'00001101'  ;AN0 analog
000086 6EC1           00112     MOVWF ADCON1, 0
000088 9EC0           00113     BCF ADCON2, ADFM, 0 ;Left justified
00008A 8AC0           00114     BSF ADCON2, 5, 0   ;Toquem aquests bits perqu? trigui m?s a convertir
00008C 88C0           00115     BSF ADCON2, 4, 0
00008E 84C0           00116     BSF ADCON2, 2, 0
000090 80C0           00117     BSF ADCON2, 0, 0
000092 0012           00118     RETURN    
000094                00119 CONFIG_TIMER
000094 0E91           00120     MOVLW b'10010001'
000096 6ED5           00121     MOVWF T0CON,0   
000098 EC?? F???      00122     CALL CARREGA_TIMER
00009C 0012           00123     RETURN
00009E                00124 CARREGA_TIMER
00009E 0E3C           00125     MOVLW HIGH(.15536);;cada 20ms
0000A0 6ED7           00126     MOVWF TMR0H,0
0000A2 0EB0           00127     MOVLW LOW(.15536)
0000A4 6ED6           00128     MOVWF TMR0L,0
0000A6 0012           00129     RETURN
0000A8                00130 CONFIG_INTERRUPTS
0000A8 0EE0           00131     MOVLW b'11100000'
0000AA 6EF2           00132     MOVWF INTCON,0
0000AC 9EF1           00133     BCF INTCON2,RBPU,0
                      00134     
0000AE 0012           00135     RETURN
                      00136     
                      00137 ;-----------------------------------FUNCIONS------------------------------------
                      00138 ;timer servo
0000B0                00139 ACTION_TMR
0000B0 EC?? F???      00140     CALL CARREGA_TIMER;reiniciem el timer
0000B4 94F2           00141     BCF INTCON,TMR0IF,0;quan salti una interrupcio qualsevol, nomes tenim timer0 de moment
0000B6 EC?? F???      00142     CALL PWM
                      00143     
0000BA 0012           00144     RETURN
0000BC                00145 PWM
0000BC C010 F011      00146     MOVFF PWM_VAR, PWM_AUX
0000C0 8489           00147     BSF LATA,2,0
MPASM 5.86             NEWPIC_8B_GENERAL.ASM   2-18-2022  17:38:54         PAGE  4


LOC  OBJECT CODE     LINE SOURCE TEXT
  VALUE

Warning[207]: Found label after column 1. (LOOP_ESPERAPWM)
0000C2                00148     LOOP_ESPERAPWM
0000C2 EC?? F???      00149         CALL ESPERA_GRAUS
0000C6 2E10           00150         DECFSZ PWM_VAR,1,0
0000C8 EF?? F???      00151         GOTO LOOP_ESPERAPWM
0000CC 9489           00152     BCF LATA,2,0
0000CE C011 F010      00153     MOVFF PWM_AUX, PWM_VAR
0000D2 0012           00154     RETURN
                      00155     
0000D4                00156 ESPERA_GRAUS
0000D4 0E29           00157     MOVLW .41 ;13us un sol grau, canviar a posicions
0000D6 6E12           00158     MOVWF COMPT_GRAUS,0
Warning[207]: Found label after column 1. (LOOP_GRAUS)
0000D8                00159     LOOP_GRAUS
0000D8 2E12           00160         DECFSZ COMPT_GRAUS,1,0
0000DA EF?? F???      00161         GOTO LOOP_GRAUS
0000DE 0012           00162     RETURN
                      00163         
                      00164 ;--------------mode manual--------------
0000E0                00165 FUNCIO_MODE_MANUAL
0000E0 848B           00166     BSF LATC, 2,0;verd
                      00167    
                      00168     
                      00169     
                      00170     
                      00171     
                      00172     
                      00173     ;codi funcio manual
0000E2 EC?? F???      00174     CALL MIRA_MODE_ENTRADA;joystick o java
                      00175     
0000E6 AA0A           00176     BTFSS MODE_ACTUAL,5,0
0000E8 EC?? F???      00177     CALL MOVIMENT_JOYSTICK
0000EC BA0A           00178     BTFSC MODE_ACTUAL,5,0
0000EE EC?? F???      00179     CALL MOVIMENT_JAVA_MANUAL
                      00180     
                      00181     
                      00182     ;NO ARRIBAR AQUI SI S'ESTA ENREGISTRANT
0000F2 A281           00183     BTFSS PORTB,1,0;si actiu (0) canvi mode
0000F4 EC?? F???      00184     CALL POLSADOR_REBOTS_CANVI_A_AUTO
                      00185     ;canvi per P EUSART.
0000F8 AA9E           00186     BTFSS PIR1,RCIF,0
0000FA EF?? F???      00187     GOTO END_LOOP_MAIN;no eusart
0000FE 50AE           00188     movf RCREG,0,0
000100 6E0B           00189     MOVWF EUSART_INPUT,0
000102 0E50           00190     MOVLW 'P'
000104 620B           00191     CPFSEQ EUSART_INPUT,0
000106 EF?? F???      00192     GOTO END_LOOP_MAIN
00010A 8E0A           00193     BSF MODE_ACTUAL,7,0;activem mode auto
00010C EF?? F???      00194     GOTO END_LOOP_MAIN
                      00195         
000110                00196 POLSADOR_REBOTS_CANVI_A_AUTO
000110 EC?? F???      00197   CALL ESPERA_meitat
000114 EC?? F???      00198   CALL ESPERA_meitat
MPASM 5.86             NEWPIC_8B_GENERAL.ASM   2-18-2022  17:38:54         PAGE  5


LOC  OBJECT CODE     LINE SOURCE TEXT
  VALUE

000118 B281           00199   BTFSC PORTB,1,0
00011A 0012           00200   RETURN
00011C 8E0A           00201   BSF MODE_ACTUAL,7,0   ;OKOKOKOKOK
Warning[207]: Found label after column 1. (ESPERA_DESCLICAR_CANVI_A_AUTO)
00011E                00202     ESPERA_DESCLICAR_CANVI_A_AUTO
00011E A281           00203       BTFSS PORTB,1,0
000120 EF?? F???      00204       GOTO ESPERA_DESCLICAR_CANVI_A_AUTO
000124 0012           00205       RETURN
                      00206   
000126                00207 POLSADOR_REBOTS_CANVI_A_MANUAL
000126 EC?? F???      00208   CALL ESPERA_meitat
00012A EC?? F???      00209   CALL ESPERA_meitat
00012E B281           00210   BTFSC PORTB,1,0
000130 0012           00211   RETURN
000132 9E0A           00212   BCF MODE_ACTUAL,7,0   ;OKOKOKOKOK
Warning[207]: Found label after column 1. (ESPERA_DESCLICAR_CANVI_A_MANUAL)
000134                00213     ESPERA_DESCLICAR_CANVI_A_MANUAL
000134 A281           00214       BTFSS PORTB,1,0
000136 EF?? F???      00215       GOTO ESPERA_DESCLICAR_CANVI_A_MANUAL
00013A 0012           00216       RETURN
                      00217     
00013C                00218 MOVIMENT_JOYSTICK
                      00219 
00013C 84C2           00220         BSF ADCON0,CHS0,0   ;activar hoystick X PORTA0 per lectura
Warning[207]: Found label after column 1. (LOOP_ANALOG)
00013E                00221         LOOP_ANALOG
00013E 82C2           00222             BSF ADCON0, 1, 0  ;Fem la conversió
Warning[207]: Found label after column 1. (LOOP_CONVER)
000140                00223             LOOP_CONVER
000140 B2C2           00224                 BTFSC ADCON0, 1, 0  ;Esperem a que es faci la conversió i mirem què obtenim
000142 EF?? F???      00225                 GOTO LOOP_CONVER
000146 CFC4 F00E      00226             MOVFF ADRESH, VAR_CONVER  ;Passem la conversió a la nostra variable
00014A 0EC8           00227             MOVLW .200
00014C 600E           00228             CPFSLT VAR_CONVER, 0
00014E EC?? F???      00229             CALL INCREMENT_ANALOG  ;Si estem per sobre de 240 incrementem PWM
000152 0E0F           00230             MOVLW .15
000154 640E           00231             CPFSGT VAR_CONVER, 0
000156 EC?? F???      00232             CALL DECREMENT_ANALOG  ;Si estem per sota de 15 decrementem PWM
00015A 0012           00233         RETURN
00015C                00234 INCREMENT_ANALOG
00015C 0E90           00235         MOVLW .144;144=notes+39init
00015E 5C10           00236         SUBWF PWM_VAR, 0, 0
000160 A4D8           00237         BTFSS STATUS, Z, 0  ;Si la suma no dona 0, decrementem
000162 EC?? F???      00238         CALL SUMA
Warning[207]: Found label after column 1. (LOOP_WAIT)
000166                00239         LOOP_WAIT
000166 82C2           00240             BSF ADCON0, 1, 0  ;Fem la conversió
Warning[207]: Found label after column 1. (LOOP_CWAIT)
000168                00241             LOOP_CWAIT
000168 B2C2           00242                 BTFSC ADCON0, 1, 0  ;Esperem a que es faci la conversió i mirem què obtenim
00016A EF?? F???      00243                 GOTO LOOP_CWAIT
00016E CFC4 F00F      00244                 MOVFF ADRESH, VAR_COMP  ;Passem la conversió a la nostra variable
000172 0E8C           00245                 MOVLW .140
MPASM 5.86             NEWPIC_8B_GENERAL.ASM   2-18-2022  17:38:54         PAGE  6


LOC  OBJECT CODE     LINE SOURCE TEXT
  VALUE

000174 5C0F           00246                 SUBWF VAR_COMP, 0, 0
000176 A8D8           00247                 BTFSS STATUS, N, 0  ;Si es negatiu vol dir que ja esta a la posicio inicial
000178 EF?? F???      00248             GOTO LOOP_WAIT      
                      00249         
00017C 0012           00250         RETURN
00017E                00251 DECREMENT_ANALOG
00017E 0E27           00252     MOVLW .39
000180 5C10           00253     SUBWF PWM_VAR, 0, 0
000182 A4D8           00254     BTFSS STATUS, Z, 0  ;Si la resta no dona 0, decrementem
000184 EC?? F???      00255     CALL RESTA
Warning[207]: Found label after column 1. (LOOP_WAITD)
000188                00256     LOOP_WAITD  ;Esperem a que el joystick torni a la seva posició
000188 82C2           00257         BSF ADCON0, 1, 0  ;Fem la conversió
Warning[207]: Found label after column 1. (LOOP_DWAIT)
00018A                00258         LOOP_DWAIT
00018A B2C2           00259             BTFSC ADCON0, 1, 0  ;Esperem a que es faci la conversió i mirem què obtenim
00018C EF?? F???      00260             GOTO LOOP_DWAIT
000190 CFC4 F00F      00261             MOVFF ADRESH, VAR_COMP  ;Passem la conversió a la nostra variable
000194 0E64           00262             MOVLW .100
000196 5C0F           00263             SUBWF VAR_COMP, 0, 0
000198 B8D8           00264             BTFSC STATUS, N, 0
00019A EF?? F???      00265         GOTO LOOP_WAITD
00019E 0012           00266     RETURN
0001A0                00267 SUMA
0001A0 0E0F           00268     MOVLW .15;increment pos
0001A2 2610           00269     ADDWF PWM_VAR, 1, 0  ;Hem de sumar 5 graus cada vegada
0001A4 0012           00270     RETURN
0001A6                00271 RESTA
0001A6 0E0F           00272     MOVLW .15;dec pos
0001A8 5E10           00273     SUBWF PWM_VAR, 1, 0  ;Hem de restar 5 graus cada vegada
0001AA 0012           00274     RETURN
                      00275     
0001AC                00276 MIRA_MODE_ENTRADA
0001AC B681           00277     BTFSC PORTB,3,0
0001AE 0012           00278     RETURN
0001B0 EC?? F???      00279     CALL ESPERA_meitat
0001B4 EC?? F???      00280     CALL ESPERA_meitat
0001B8 A681           00281     BTFSS PORTB,3,0
0001BA EF?? F???      00282     GOTO ESPERA_DESCLICAR_MODE_TOCAR
0001BE 0012           00283     RETURN
                      00284     
Warning[207]: Found label after column 1. (ESPERA_DESCLICAR_MODE_TOCAR)
0001C0                00285     ESPERA_DESCLICAR_MODE_TOCAR
0001C0 A681           00286     BTFSS PORTB,3,0
0001C2 EF?? F???      00287     GOTO ESPERA_DESCLICAR_MODE_TOCAR
0001C6 7A0A           00288     BTG MODE_ACTUAL,5,0;FLAG JOYSTICK O JAVA
0001C8 768B           00289     BTG LATC,3,0
0001CA 0012           00290     RETURN
0001CC                00291 ESPERA_TX
0001CC A2AC           00292     BTFSS TXSTA,TRMT,0
0001CE EF?? F???      00293     GOTO ESPERA_TX
0001D2 0012           00294     RETURN   
0001D4                00295 MOVIMENT_JAVA_MANUAL
MPASM 5.86             NEWPIC_8B_GENERAL.ASM   2-18-2022  17:38:54         PAGE  7


LOC  OBJECT CODE     LINE SOURCE TEXT
  VALUE

0001D4 AA9E           00296     BTFSS PIR1,RCIF,0
0001D6 0012           00297     RETURN
0001D8 50AE           00298     MOVF RCREG,0,0
0001DA 6E0B           00299     MOVWF EUSART_INPUT,0
0001DC C00B FFAD      00300     MOVFF EUSART_INPUT,TXREG
0001E0 EC?? F???      00301     CALL ESPERA_TX
                      00302     
                      00303     
                      00304     
                      00305     
0001E4 0E43           00306     MOVLW 'C'
0001E6 620B           00307     CPFSEQ EUSART_INPUT,0
0001E8 EF?? F???      00308     GOTO NEXT_C
0001EC 0E27           00309     MOVLW .39;valor init C
0001EE 6E10           00310     MOVWF PWM_VAR
0001F0                00311 NEXT_C
0001F0 0E44           00312     MOVLW 'D'
0001F2 620B           00313     CPFSEQ EUSART_INPUT,0
0001F4 EF?? F???      00314     GOTO NEXT_D
0001F8 0E36           00315     MOVLW .54;posicio D
0001FA 6E10           00316     MOVWF PWM_VAR
0001FC                00317 NEXT_D
0001FC 0E45           00318     MOVLW 'E'
0001FE 620B           00319     CPFSEQ EUSART_INPUT,0
000200 EF?? F???      00320     GOTO NEXT_E
000204 0E45           00321     MOVLW .69;posicio E
000206 6E10           00322     MOVWF PWM_VAR
000208                00323 NEXT_E
000208 0E46           00324     MOVLW 'F'
00020A 620B           00325     CPFSEQ EUSART_INPUT,0
00020C EF?? F???      00326     GOTO NEXT_F
000210 0E54           00327     MOVLW .84;posicio F
000212 6E10           00328     MOVWF PWM_VAR
000214                00329 NEXT_F
000214 0E47           00330     MOVLW 'G'
000216 620B           00331     CPFSEQ EUSART_INPUT,0
000218 EF?? F???      00332     GOTO NEXT_G
00021C 0E63           00333     MOVLW .99;posicio G
00021E 6E10           00334     MOVWF PWM_VAR
000220                00335 NEXT_G
000220 0E41           00336     MOVLW 'A'
000222 620B           00337     CPFSEQ EUSART_INPUT,0
000224 EF?? F???      00338     GOTO NEXT_A
000228 0E72           00339     MOVLW .114;posicio A
00022A 6E10           00340     MOVWF PWM_VAR
00022C                00341 NEXT_A
00022C 0E42           00342     MOVLW 'B'
00022E 620B           00343     CPFSEQ EUSART_INPUT,0
000230 EF?? F???      00344     GOTO NEXT_B
000234 0E81           00345     MOVLW .129;posicio B
000236 6E10           00346     MOVWF PWM_VAR
000238                00347 NEXT_B
000238 0E63           00348     MOVLW 'c'
MPASM 5.86             NEWPIC_8B_GENERAL.ASM   2-18-2022  17:38:54         PAGE  8


LOC  OBJECT CODE     LINE SOURCE TEXT
  VALUE

00023A 620B           00349     CPFSEQ EUSART_INPUT,0
00023C EF?? F???      00350     GOTO NEXT_c
000240 0E90           00351     MOVLW .144;posicio c'
000242 6E10           00352     MOVWF PWM_VAR
000244                00353 NEXT_c
                      00354     
Warning[203]: Found opcode in column 1. (RETURN)
000244 0012           00355 RETURN
                      00356     
                      00357 ;--------------mode automatic--------------
000246                00358 FUNCIO_MODE_AUTOMATIC
000246 808B           00359     BSF LATC,0,0;blau
000248 968B           00360     BCF LATC,3,0
00024A AC0A           00361     BTFSS MODE_ACTUAL,6,0
00024C EF?? F???      00362     GOTO PRE_AUTO_MODE
                      00363     
                      00364     
                      00365     
                      00366     ;codi auto
                      00367     
                      00368     
                      00369     
                      00370     ;no arribar aqui si s'esta reproduint (si abans i si despres)
000250 9C0A           00371     BCF MODE_ACTUAL,6,0;netejar que espera una altra P per la seguent canco
                      00372     ;i tornar a reproduir una altra
                      00373     
000252 A281           00374     BTFSS PORTB,1,0;si cliquen manual, activem manual
000254 EC?? F???      00375     CALL POLSADOR_REBOTS_CANVI_A_MANUAL
000258 EF?? F???      00376     GOTO END_LOOP_MAIN
                      00377     
                      00378     
Warning[207]: Found label after column 1. (PRE_AUTO_MODE)
00025C                00379     PRE_AUTO_MODE
                      00380 
                      00381         ;mirar btn
00025C B281           00382         BTFSC PORTB,1,0
00025E EF?? F???      00383         GOTO PRE_AUTO_MODE_CHECK_PIR
000262 EC?? F???      00384         CALL POLSADOR_REBOTS_CANVI_A_MANUAL
000266 EF?? F???      00385         GOTO END_LOOP_MAIN
Warning[207]: Found label after column 1. (PRE_AUTO_MODE_CHECK_PIR)
00026A                00386         PRE_AUTO_MODE_CHECK_PIR
00026A AA9E           00387             BTFSS PIR1,RCIF,0
00026C EF?? F???      00388             GOTO PRE_AUTO_MODE;no eusart
000270 50AE           00389             movf RCREG,0,0
000272 6E0B           00390             MOVWF EUSART_INPUT,0
000274 0E50           00391             MOVLW 'P'
000276 620B           00392             CPFSEQ EUSART_INPUT,0
000278 EF?? F???      00393             GOTO PRE_AUTO_MODE
00027C EF?? F???      00394             GOTO FUNCIO_MODE_AUTOMATIC
                      00395     
000280                00396 ESPERA_meitat
000280 680C           00397     SETF tmp3,0
000282                00398 BUCLE_D_1
MPASM 5.86             NEWPIC_8B_GENERAL.ASM   2-18-2022  17:38:54         PAGE  9


LOC  OBJECT CODE     LINE SOURCE TEXT
  VALUE

000282 680D           00399     SETF tmp4,0
000284                00400 BUCLE2_D_1
000284 2E0D           00401     DECFSZ tmp4,f,0
000286 EF?? F???      00402     GOTO BUCLE2_D_1
00028A 2E0C           00403     DECFSZ tmp3,f,0
00028C EF?? F???      00404     GOTO BUCLE_D_1
000290 0012           00405     RETURN
                      00406      
                      00407 ;--------------------------------------MAIN-------------------------------------
000292                00408 MAIN
                      00409 
000292 EC?? F???      00410     CALL CONFIG_PORTS
000296 EC?? F???      00411     CALL INIT_VARS
00029A EC?? F???      00412     CALL INIT_EUSART
00029E EC?? F???      00413     CALL CONFIG_INTERRUPTS
0002A2 EC?? F???      00414     CALL CONFIG_TIMER
0002A6 EC?? F???      00415     CALL CONFIG_ADC
                      00416 
0002AA                00417 LOOP_MAIN;bucle del programa
                      00418     ;entrar als modes
                      00419     ;nota: els canvis de modes es fan dins els funcio_mode_xxxx
0002AA AE0A           00420     BTFSS MODE_ACTUAL,7,0
0002AC EF?? F???      00421     GOTO FUNCIO_MODE_MANUAL;aqui manual
0002B0 EF?? F???      00422     GOTO FUNCIO_MODE_AUTOMATIC;aqui auto
                      00423     
                      00424     
                      00425     
                      00426     
                      00427     
Warning[207]: Found label after column 1. (END_LOOP_MAIN)
0002B4                00428     END_LOOP_MAIN
                      00429         ;netejar leds
0002B4 908B           00430         BCF LATC,0,0
0002B6 928B           00431         BCF LATC,1,0
0002B8 948B           00432         BCF LATC,2,0
                      00433         ;BCF LATC,3,0
                      00434 
0002BA EF?? F???      00435         GOTO LOOP_MAIN
Warning[205]: Found directive in column 1. (END)
                      00436 END
MPASM 5.86             NEWPIC_8B_GENERAL.ASM   2-18-2022  17:38:54         PAGE 10


SYMBOL TABLE
  LABEL                             VALUE 

A                                 00000000
ABDEN                             00000000
ABDOVF                            00000007
ACCESS                            00000000
ACKDT                             00000005
ACKEN                             00000004
ACKSTAT                           00000006
ACQT0                             00000003
ACQT1                             00000004
ACQT2                             00000005
ACTION_TMR                        000000B0
ADCON0                            00000FC2
ADCON1                            00000FC1
ADCON2                            00000FC0
ADCS0                             00000000
ADCS1                             00000001
ADCS2                             00000002
ADDEN                             00000003
ADEN                              00000003
ADFM                              00000007
ADIE                              00000006
ADIF                              00000006
ADIP                              00000006
ADMSK1                            00000001
ADMSK2                            00000002
ADMSK3                            00000003
ADMSK4                            00000004
ADMSK5                            00000005
ADON                              00000000
ADRES                             00000FC3
ADRESH                            00000FC4
ADRESL                            00000FC3
AN0                               00000000
AN1                               00000001
AN10                              00000001
AN11                              00000004
AN12                              00000000
AN2                               00000002
AN3                               00000003
AN4                               00000005
AN5                               00000000
AN6                               00000001
AN7                               00000002
AN8                               00000002
AN9                               00000003
BANKED                            00000001
BAUDCON                           00000FB8
BAUDCTL                           00000FB8
BCLIE                             00000003
BCLIF                             00000003
BCLIP                             00000003
BF                                00000000
BGST                              00000005
MPASM 5.86             NEWPIC_8B_GENERAL.ASM   2-18-2022  17:38:54         PAGE 11


SYMBOL TABLE
  LABEL                             VALUE 

BOR                               00000000
BRG16                             00000003
BRGH                              00000002
BSR                               00000FE0
BUCLE2_D_1                        00000284
BUCLE_D_1                         00000282
C                                 00000000
C1INV                             00000004
C1N                               00000000
C1OUT_CMCON                       00000006
C1OUT_PORTA                       00000004
C1P                               00000003
C2INV                             00000005
C2N                               00000001
C2OUT_CMCON                       00000007
C2OUT_PORTA                       00000005
C2P                               00000002
CARREGA_TIMER                     0000009E
CCP1                              00000002
CCP1CON                           00000FBD
CCP1IE                            00000002
CCP1IF                            00000002
CCP1IP                            00000002
CCP1M0                            00000000
CCP1M1                            00000001
CCP1M2                            00000002
CCP1M3                            00000003
CCP1X                             00000005
CCP1Y                             00000004
CCP2CON                           00000FBA
CCP2IE                            00000000
CCP2IF                            00000000
CCP2IP                            00000000
CCP2M0                            00000000
CCP2M1                            00000001
CCP2M2                            00000002
CCP2M3                            00000003
CCP2X                             00000005
CCP2Y                             00000004
CCP2_PORTB                        00000003
CCP2_PORTC                        00000001
CCPR1                             00000FBE
CCPR1H                            00000FBF
CCPR1L                            00000FBE
CCPR2                             00000FBB
CCPR2H                            00000FBC
CCPR2L                            00000FBB
CFGS                              00000006
CHS0                              00000002
CHS1                              00000003
CHS2                              00000004
CHS3                              00000005
CIS                               00000003
MPASM 5.86             NEWPIC_8B_GENERAL.ASM   2-18-2022  17:38:54         PAGE 12


SYMBOL TABLE
  LABEL                             VALUE 

CK                                00000006
CKE                               00000006
CKP                               00000004
CLKI                              00000007
CLKO                              00000006
CM0                               00000000
CM1                               00000001
CM2                               00000002
CMCON                             00000FB4
CMIE                              00000006
CMIF                              00000006
CMIP                              00000006
COMPT_GRAUS                       00000012
CONFIG_ADC                        00000082
CONFIG_INTERRUPTS                 000000A8
CONFIG_PORTS                      00000022
CONFIG_TIMER                      00000094
CREN                              00000004
CS                                00000002
CSRC                              00000007
CVR0                              00000000
CVR1                              00000001
CVR2                              00000002
CVR3                              00000003
CVRCON                            00000FB5
CVREF                             00000002
CVREN                             00000007
CVROE                             00000006
CVRR                              00000005
CVRSS                             00000004
D                                 00000005
DC                                00000001
DC1B0                             00000004
DC1B1                             00000005
DC2B0                             00000004
DC2B1                             00000005
DDRA                              TRISA
DDRB                              TRISB
DDRC                              TRISC
DDRD                              TRISD
DDRE                              TRISE
DECREMENT_ANALOG                  0000017E
DONE                              00000001
D_A                               00000005
D_NOT_A                           00000005
ECCP1AS                           00000FB6
ECCP1CON                          00000FBD
ECCP1DEL                          00000FB7
ECCPAS0                           00000004
ECCPAS1                           00000005
ECCPAS2                           00000006
ECCPASE                           00000007
EEADR                             00000FA9
MPASM 5.86             NEWPIC_8B_GENERAL.ASM   2-18-2022  17:38:54         PAGE 13


SYMBOL TABLE
  LABEL                             VALUE 

EECON1                            00000FA6
EECON2                            00000FA7
EEDATA                            00000FA8
EEIE                              00000004
EEIF                              00000004
EEIP                              00000004
EEPGD                             00000007
END_LOOP_MAIN                     000002B4
ESPERA_DESCLICAR_CANVI_A_AUTO     0000011E
ESPERA_DESCLICAR_CANVI_A_MANUAL   00000134
ESPERA_DESCLICAR_MODE_TOCAR       000001C0
ESPERA_GRAUS                      000000D4
ESPERA_TX                         000001CC
ESPERA_meitat                     00000280
EUSART_INPUT                      0000000B
FAST                              00000001
FERR                              00000002
FLT0                              00000000
FLTS                              00000002
FREE                              00000004
FSR0                              00000000
FSR0H                             00000FEA
FSR0L                             00000FE9
FSR1                              00000001
FSR1H                             00000FE2
FSR1L                             00000FE1
FSR2                              00000002
FSR2H                             00000FDA
FSR2L                             00000FD9
FUNCIO_MODE_AUTOMATIC             00000246
FUNCIO_MODE_MANUAL                000000E0
GCEN                              00000007
GIE                               00000007
GIEH                              00000007
GIEL                              00000006
GIE_GIEH                          00000007
GO                                00000001
GO_DONE                           00000001
GO_NOT_DONE                       00000001
HIGH_RSI                          0000001A
HLVDCON                           00000FD2
HLVDEN                            00000004
HLVDIE                            00000002
HLVDIF                            00000002
HLVDIN                            00000005
HLVDIP                            00000002
HLVDL0                            00000000
HLVDL1                            00000001
HLVDL2                            00000002
HLVDL3                            00000003
IBF                               00000007
IBOV                              00000005
IDLEN                             00000007
MPASM 5.86             NEWPIC_8B_GENERAL.ASM   2-18-2022  17:38:54         PAGE 14


SYMBOL TABLE
  LABEL                             VALUE 

INCREMENT_ANALOG                  0000015C
INDF0                             00000FEF
INDF1                             00000FE7
INDF2                             00000FDF
INIT_EUSART                       0000006E
INIT_VARS                         00000046
INT0                              00000000
INT0E                             00000004
INT0F                             00000001
INT0IE                            00000004
INT0IF                            00000001
INT1                              00000001
INT1E                             00000003
INT1F                             00000000
INT1IE                            00000003
INT1IF                            00000000
INT1IP                            00000006
INT1P                             00000006
INT2                              00000002
INT2E                             00000004
INT2F                             00000001
INT2IE                            00000004
INT2IF                            00000001
INT2IP                            00000007
INT2P                             00000007
INTCON                            00000FF2
INTCON2                           00000FF1
INTCON3                           00000FF0
INTEDG0                           00000006
INTEDG1                           00000005
INTEDG2                           00000004
INTSRC                            00000007
IOFS                              00000002
IPEN                              00000007
IPR1                              00000F9F
IPR2                              00000FA2
IRCF0                             00000004
IRCF1                             00000005
IRCF2                             00000006
IRVST                             00000005
KBI0                              00000004
KBI1                              00000005
KBI2                              00000006
KBI3                              00000007
LATA                              00000F89
LATA0                             00000000
LATA1                             00000001
LATA2                             00000002
LATA3                             00000003
LATA4                             00000004
LATA5                             00000005
LATA6                             00000006
LATA7                             00000007
MPASM 5.86             NEWPIC_8B_GENERAL.ASM   2-18-2022  17:38:54         PAGE 15


SYMBOL TABLE
  LABEL                             VALUE 

LATB                              00000F8A
LATB0                             00000000
LATB1                             00000001
LATB2                             00000002
LATB3                             00000003
LATB4                             00000004
LATB5                             00000005
LATB6                             00000006
LATB7                             00000007
LATC                              00000F8B
LATC0                             00000000
LATC1                             00000001
LATC2                             00000002
LATC3                             00000003
LATC4                             00000004
LATC5                             00000005
LATC6                             00000006
LATC7                             00000007
LATD                              00000F8C
LATD0                             00000000
LATD1                             00000001
LATD2                             00000002
LATD3                             00000003
LATD4                             00000004
LATD5                             00000005
LATD6                             00000006
LATD7                             00000007
LATE                              00000F8D
LATE0                             00000000
LATE1                             00000001
LATE2                             00000002
LOOP_ANALOG                       0000013E
LOOP_CONVER                       00000140
LOOP_CWAIT                        00000168
LOOP_DWAIT                        0000018A
LOOP_ESPERAPWM                    000000C2
LOOP_GRAUS                        000000D8
LOOP_MAIN                         000002AA
LOOP_WAIT                         00000166
LOOP_WAITD                        00000188
LVDCON                            00000FD2
LVDEN                             00000004
LVDIE                             00000002
LVDIF                             00000002
LVDIP                             00000002
LVDL0                             00000000
LVDL1                             00000001
LVDL2                             00000002
LVDL3                             00000003
LVV0                              00000000
LVV1                              00000001
LVV2                              00000002
LVV3                              00000003
MPASM 5.86             NEWPIC_8B_GENERAL.ASM   2-18-2022  17:38:54         PAGE 16


SYMBOL TABLE
  LABEL                             VALUE 

MAIN                              00000292
MCLR                              00000003
MIRA_MODE_ENTRADA                 000001AC
MODE_ACTUAL                       0000000A
MOVIMENT_JAVA_MANUAL              000001D4
MOVIMENT_JOYSTICK                 0000013C
N                                 00000004
NEXT_A                            0000022C
NEXT_B                            00000238
NEXT_C                            000001F0
NEXT_D                            000001FC
NEXT_E                            00000208
NEXT_F                            00000214
NEXT_G                            00000220
NEXT_c                            00000244
NOT_A                             00000005
NOT_ADDRESS                       00000005
NOT_BOR                           00000000
NOT_CS                            00000002
NOT_DONE                          00000001
NOT_MCLR                          00000003
NOT_PD                            00000002
NOT_POR                           00000001
NOT_RBPU                          00000007
NOT_RD                            00000000
NOT_RI                            00000004
NOT_SS                            00000005
NOT_T1SYNC                        00000002
NOT_T3SYNC                        00000002
NOT_TO                            00000003
NOT_W                             00000002
NOT_WR                            00000001
NOT_WRITE                         00000002
OBF                               00000006
OERR                              00000001
OSC1                              00000007
OSC2                              00000006
OSCCON                            00000FD3
OSCFIE                            00000007
OSCFIF                            00000007
OSCFIP                            00000007
OSCTUNE                           00000F9B
OSTS                              00000003
OV                                00000003
P                                 00000004
P1A                               00000002
P1B                               00000005
P1C                               00000006
P1D                               00000007
P1M0                              00000006
P1M1                              00000007
PC                                00000FF9
PCFG0                             00000000
MPASM 5.86             NEWPIC_8B_GENERAL.ASM   2-18-2022  17:38:54         PAGE 17


SYMBOL TABLE
  LABEL                             VALUE 

PCFG1                             00000001
PCFG2                             00000002
PCFG3                             00000003
PCL                               00000FF9
PCLATH                            00000FFA
PCLATU                            00000FFB
PD                                00000002
PDC0                              00000000
PDC1                              00000001
PDC2                              00000002
PDC3                              00000003
PDC4                              00000004
PDC5                              00000005
PDC6                              00000006
PEIE                              00000006
PEIE_GIEL                         00000006
PEN                               00000002
PGC                               00000006
PGD                               00000007
PGM                               00000005
PIE1                              00000F9D
PIE2                              00000FA0
PIR1                              00000F9E
PIR2                              00000FA1
PLLEN                             00000006
PLUSW0                            00000FEB
PLUSW1                            00000FE3
PLUSW2                            00000FDB
POLSADOR_REBOTS_CANVI_A_AUTO      00000110
POLSADOR_REBOTS_CANVI_A_MANUAL    00000126
POR                               00000001
PORTA                             00000F80
PORTB                             00000F81
PORTC                             00000F82
PORTD                             00000F83
PORTE                             00000F84
POSTDEC0                          00000FED
POSTDEC1                          00000FE5
POSTDEC2                          00000FDD
POSTINC0                          00000FEE
POSTINC1                          00000FE6
POSTINC2                          00000FDE
PR2                               00000FCB
PREINC0                           00000FEC
PREINC1                           00000FE4
PREINC2                           00000FDC
PRE_AUTO_MODE                     0000025C
PRE_AUTO_MODE_CHECK_PIR           0000026A
PROD                              00000FF3
PRODH                             00000FF4
PRODL                             00000FF3
PRSEN                             00000007
PSA                               00000003
MPASM 5.86             NEWPIC_8B_GENERAL.ASM   2-18-2022  17:38:54         PAGE 18


SYMBOL TABLE
  LABEL                             VALUE 

PSP0                              00000000
PSP1                              00000001
PSP2                              00000002
PSP3                              00000003
PSP4                              00000004
PSP5                              00000005
PSP6                              00000006
PSP7                              00000007
PSPIE                             00000007
PSPIF                             00000007
PSPIP                             00000007
PSPMODE                           00000004
PSSAC0                            00000002
PSSAC1                            00000003
PSSBD0                            00000000
PSSBD1                            00000001
PWM                               000000BC
PWM1CON                           00000FB7
PWM_AUX                           00000011
PWM_VAR                           00000010
R                                 00000002
RA0                               00000000
RA1                               00000001
RA2                               00000002
RA3                               00000003
RA4                               00000004
RA5                               00000005
RA6                               00000006
RA7                               00000007
RB0                               00000000
RB1                               00000001
RB2                               00000002
RB3                               00000003
RB4                               00000004
RB5                               00000005
RB6                               00000006
RB7                               00000007
RBIE                              00000003
RBIF                              00000000
RBIP                              00000000
RBPU                              00000007
RC0                               00000000
RC1                               00000001
RC2                               00000002
RC3                               00000003
RC4                               00000004
RC5                               00000005
RC6                               00000006
RC7                               00000007
RCEN                              00000003
RCIDL                             00000006
RCIE                              00000005
RCIF                              00000005
MPASM 5.86             NEWPIC_8B_GENERAL.ASM   2-18-2022  17:38:54         PAGE 19


SYMBOL TABLE
  LABEL                             VALUE 

RCIP                              00000005
RCMT                              00000006
RCON                              00000FD0
RCREG                             00000FAE
RCSTA                             00000FAB
RD                                00000000
RD0                               00000000
RD1                               00000001
RD16                              00000007
RD2                               00000002
RD3                               00000003
RD4                               00000004
RD5                               00000005
RD6                               00000006
RD7                               00000007
RE0                               00000000
RE1                               00000001
RE2                               00000002
RE3                               00000003
RESTA                             000001A6
RI                                00000004
RSEN                              00000001
RX                                00000007
RX9                               00000006
RX9D                              00000000
RXDTP                             00000005
R_NOT_W                           00000002
R_W                               00000002
S                                 00000003
SBOREN                            00000006
SCK                               00000003
SCKP                              00000004
SCL                               00000003
SCS0                              00000000
SCS1                              00000001
SDA                               00000004
SDI                               00000004
SDO                               00000005
SEN                               00000000
SENDB                             00000003
SEVEN_SEG_A                       00000005
SEVEN_SEG_B                       00000006
SEVEN_SEG_C                       00000000
SEVEN_SEG_D                       00000001
SEVEN_SEG_E                       00000002
SEVEN_SEG_F                       00000003
SEVEN_SEG_G                       00000004
SEVEN_SEG_c                       00000007
SMP                               00000007
SP0                               00000000
SP1                               00000001
SP2                               00000002
SP3                               00000003
MPASM 5.86             NEWPIC_8B_GENERAL.ASM   2-18-2022  17:38:54         PAGE 20


SYMBOL TABLE
  LABEL                             VALUE 

SP4                               00000004
SPBRG                             00000FAF
SPBRGH                            00000FB0
SPEN                              00000007
SREN                              00000005
SSPADD                            00000FC8
SSPBUF                            00000FC9
SSPCON1                           00000FC6
SSPCON2                           00000FC5
SSPEN                             00000005
SSPIE                             00000003
SSPIF                             00000003
SSPIP                             00000003
SSPM0                             00000000
SSPM1                             00000001
SSPM2                             00000002
SSPM3                             00000003
SSPOV                             00000006
SSPSTAT                           00000FC7
STATUS                            00000FD8
STKFUL                            00000007
STKOVF                            00000007
STKPTR                            00000FFC
STKUNF                            00000006
SUMA                              000001A0
SWDTE                             00000000
SWDTEN                            00000000
SYNC                              00000004
T016BIT                           00000006
T08BIT                            00000006
T0CKI                             00000004
T0CON                             00000FD5
T0CS                              00000005
T0IE                              00000005
T0IF                              00000002
T0PS0                             00000000
T0PS1                             00000001
T0PS2                             00000002
T0SE                              00000004
T13CKI                            00000000
T1CKI                             00000000
T1CKPS0                           00000004
T1CKPS1                           00000005
T1CON                             00000FCD
T1OSCEN                           00000003
T1OSI                             00000001
T1OSO                             00000000
T1RUN                             00000006
T1SYNC                            00000002
T2CKPS0                           00000000
T2CKPS1                           00000001
T2CON                             00000FCA
T2OUTPS0                          00000003
MPASM 5.86             NEWPIC_8B_GENERAL.ASM   2-18-2022  17:38:54         PAGE 21


SYMBOL TABLE
  LABEL                             VALUE 

T2OUTPS1                          00000004
T2OUTPS2                          00000005
T2OUTPS3                          00000006
T3CCP1                            00000003
T3CCP2                            00000006
T3CKPS0                           00000004
T3CKPS1                           00000005
T3CON                             00000FB1
T3SYNC                            00000002
TABLAT                            00000FF5
TBLPTR                            00000FF6
TBLPTRH                           00000FF7
TBLPTRL                           00000FF6
TBLPTRU                           00000FF8
TMR0                              00000FD6
TMR0H                             00000FD7
TMR0IE                            00000005
TMR0IF                            00000002
TMR0IP                            00000002
TMR0L                             00000FD6
TMR0ON                            00000007
TMR1                              00000FCE
TMR1CS                            00000001
TMR1H                             00000FCF
TMR1IE                            00000000
TMR1IF                            00000000
TMR1IP                            00000000
TMR1L                             00000FCE
TMR1ON                            00000000
TMR2                              00000FCC
TMR2IE                            00000001
TMR2IF                            00000001
TMR2IP                            00000001
TMR2ON                            00000002
TMR3                              00000FB2
TMR3CS                            00000001
TMR3H                             00000FB3
TMR3IE                            00000001
TMR3IF                            00000001
TMR3IP                            00000001
TMR3L                             00000FB2
TMR3ON                            00000000
TO                                00000003
TOS                               00000FFD
TOSH                              00000FFE
TOSL                              00000FFD
TOSU                              00000FFF
TOUTPS0                           00000003
TOUTPS1                           00000004
TOUTPS2                           00000005
TOUTPS3                           00000006
TRISA                             00000F92
TRISA0                            00000000
MPASM 5.86             NEWPIC_8B_GENERAL.ASM   2-18-2022  17:38:54         PAGE 22


SYMBOL TABLE
  LABEL                             VALUE 

TRISA1                            00000001
TRISA2                            00000002
TRISA3                            00000003
TRISA4                            00000004
TRISA5                            00000005
TRISA6                            00000006
TRISA7                            00000007
TRISB                             00000F93
TRISB0                            00000000
TRISB1                            00000001
TRISB2                            00000002
TRISB3                            00000003
TRISB4                            00000004
TRISB5                            00000005
TRISB6                            00000006
TRISB7                            00000007
TRISC                             00000F94
TRISC0                            00000000
TRISC1                            00000001
TRISC2                            00000002
TRISC3                            00000003
TRISC4                            00000004
TRISC5                            00000005
TRISC6                            00000006
TRISC7                            00000007
TRISD                             00000F95
TRISD0                            00000000
TRISD1                            00000001
TRISD2                            00000002
TRISD3                            00000003
TRISD4                            00000004
TRISD5                            00000005
TRISD6                            00000006
TRISD7                            00000007
TRISE                             00000F96
TRISE0                            00000000
TRISE1                            00000001
TRISE2                            00000002
TRMT                              00000001
TUN0                              00000000
TUN1                              00000001
TUN2                              00000002
TUN3                              00000003
TUN4                              00000004
TX                                00000006
TX9                               00000006
TX9D                              00000000
TXCKP                             00000004
TXEN                              00000005
TXIE                              00000004
TXIF                              00000004
TXIP                              00000004
TXREG                             00000FAD
MPASM 5.86             NEWPIC_8B_GENERAL.ASM   2-18-2022  17:38:54         PAGE 23


SYMBOL TABLE
  LABEL                             VALUE 

TXSTA                             00000FAC
UA                                00000001
VAR_COMP                          0000000F
VAR_CONVER                        0000000E
VCFG0                             00000004
VCFG1                             00000005
VDIRMAG                           00000007
VPP                               00000003
VREFM                             00000002
VREFP                             00000003
W                                 00000000
WCOL                              00000007
WDTCON                            00000FD1
WR                                00000001
WREG                              00000FE8
WREN                              00000002
WRERR                             00000003
WUE                               00000001
Z                                 00000002
_BBSIZ_BB1K_4L                    000000FF
_BBSIZ_BB256_4L                   000000CF
_BBSIZ_BB512_4L                   000000DF
_BORV_0_2L                        000000E7
_BORV_1_2L                        000000EF
_BORV_2_2L                        000000F7
_BORV_3_2L                        000000FF
_BOR_NOSLP_2L                     000000FD
_BOR_OFF_2L                       000000F9
_BOR_ON_2L                        000000FF
_BOR_SOFT_2L                      000000FB
_CCP2MX_RB3_3H                    000000FE
_CCP2MX_RC1_3H                    000000FF
_CONFIG1H                         00300001
_CONFIG2H                         00300003
_CONFIG2L                         00300002
_CONFIG3H                         00300005
_CONFIG4L                         00300006
_CONFIG5H                         00300009
_CONFIG5L                         00300008
_CONFIG6H                         0030000B
_CONFIG6L                         0030000A
_CONFIG7H                         0030000D
_CONFIG7L                         0030000C
_CP0_OFF_5L                       000000FF
_CP0_ON_5L                        000000FE
_CP1_OFF_5L                       000000FF
_CP1_ON_5L                        000000FD
_CPB_OFF_5H                       000000FF
_CPB_ON_5H                        000000BF
_CPD_OFF_5H                       000000FF
_CPD_ON_5H                        0000007F
_DEBUG_OFF_4L                     000000FF
_DEBUG_ON_4L                      0000007F
MPASM 5.86             NEWPIC_8B_GENERAL.ASM   2-18-2022  17:38:54         PAGE 24


SYMBOL TABLE
  LABEL                             VALUE 

_DEVID1                           003FFFFE
_DEVID2                           003FFFFF
_EBTR0_OFF_7L                     000000FF
_EBTR0_ON_7L                      000000FE
_EBTR1_OFF_7L                     000000FF
_EBTR1_ON_7L                      000000FD
_EBTRB_OFF_7H                     000000FF
_EBTRB_ON_7H                      000000BF
_FCMEN_OFF_1H                     000000BF
_FCMEN_ON_1H                      000000FF
_IDLOC0                           00200000
_IDLOC1                           00200001
_IDLOC2                           00200002
_IDLOC3                           00200003
_IDLOC4                           00200004
_IDLOC5                           00200005
_IDLOC6                           00200006
_IDLOC7                           00200007
_IESO_OFF_1H                      0000007F
_IESO_ON_1H                       000000FF
_LPT1OSC_OFF_3H                   000000FB
_LPT1OSC_ON_3H                    000000FF
_LVP_OFF_4L                       000000FB
_LVP_ON_4L                        000000FF
_MCLRE_OFF_3H                     0000007F
_MCLRE_ON_3H                      000000FF
_OSC_ECIO_1H                      000000F5
_OSC_EC_1H                        000000F4
_OSC_HSPLL_1H                     000000F6
_OSC_HS_1H                        000000F2
_OSC_INTIO1_1H                    000000F9
_OSC_INTIO2_1H                    000000F8
_OSC_LP_1H                        000000F0
_OSC_RCIO_1H                      000000F7
_OSC_RC_1H                        000000F3
_OSC_XT_1H                        000000F1
_PBADEN_ANA_3H                    000000FF
_PBADEN_DIG_3H                    000000FD
_PWRT_OFF_2L                      000000FF
_PWRT_ON_2L                       000000FE
_STVREN_OFF_4L                    000000FE
_STVREN_ON_4L                     000000FF
_WDTPS_1024_2H                    000000F5
_WDTPS_128_2H                     000000EF
_WDTPS_16384_2H                   000000FD
_WDTPS_16_2H                      000000E9
_WDTPS_1_2H                       000000E1
_WDTPS_2048_2H                    000000F7
_WDTPS_256_2H                     000000F1
_WDTPS_2_2H                       000000E3
_WDTPS_32768_2H                   000000FF
_WDTPS_32_2H                      000000EB
_WDTPS_4096_2H                    000000F9
MPASM 5.86             NEWPIC_8B_GENERAL.ASM   2-18-2022  17:38:54         PAGE 25


SYMBOL TABLE
  LABEL                             VALUE 

_WDTPS_4_2H                       000000E5
_WDTPS_512_2H                     000000F3
_WDTPS_64_2H                      000000ED
_WDTPS_8192_2H                    000000FB
_WDTPS_8_2H                       000000E7
_WDT_OFF_2H                       000000FE
_WDT_ON_2H                        000000FF
_WRT0_OFF_6L                      000000FF
_WRT0_ON_6L                       000000FE
_WRT1_OFF_6L                      000000FF
_WRT1_ON_6L                       000000FD
_WRTB_OFF_6H                      000000FF
_WRTB_ON_6H                       000000BF
_WRTC_OFF_6H                      000000FF
_WRTC_ON_6H                       000000DF
_WRTD_OFF_6H                      000000FF
_WRTD_ON_6H                       0000007F
_XINST_OFF_4L                     000000BF
_XINST_ON_4L                      000000FF
__18F4321                         00000001
tmp3                              0000000C
tmp4                              0000000D
tmp_timer                         00000008

Errors   :     0
Warnings :    18 reported,     0 suppressed
Messages :     0 reported,     0 suppressed

