MPASM 5.86             NEWPIC_8B_GENERAL.ASM   3-15-2022  12:40:48         PAGE  1


LOC  OBJECT CODE     LINE SOURCE TEXT
  VALUE

                      00001 ;falta comporvar rebots de baixada:
                      00002     ; play button OK, JA FET
Warning[215]: Processor superseded by command line.  Verify processor symbol.
                      00003     LIST P=PIC18F4321   F=INHX32
                      00004 #include <p18f4321.inc>
                      00001         LIST
                      00002 
                      00003 ;==========================================================================
                      00004 ; Build date : Oct 24 2019
                      00005 ;  MPASM PIC18F4321 processor include
                      00006 ; 
                      00007 ;  (c) Copyright 1999-2019 Microchip Technology, All rights reserved
                      00008 ;==========================================================================
                      00009 
                      01455         LIST
                      00005 
                      00006     CONFIG OSC=HSPLL        
                      00007     CONFIG PBADEN=DIG       ;PORTB com a Digital (el posem a 0)
                      00008     CONFIG WDT=OFF          ;Desactivem el Watch Dog Timer
                      00009     CONFIG LVP=OFF          ;Evitar resets eusart
                      00010 ;--------------------------------DECLARACIO_VARS--------------------------------
  00000000            00011 SEVEN_SEG_C EQU 0X00
  00000001            00012 SEVEN_SEG_D EQU 0X01
  00000002            00013 SEVEN_SEG_E EQU 0X02
  00000003            00014 SEVEN_SEG_F EQU 0X03
  00000004            00015 SEVEN_SEG_G EQU 0X04
  00000005            00016 SEVEN_SEG_A EQU 0X05
  00000006            00017 SEVEN_SEG_B EQU 0X06
  00000007            00018 SEVEN_SEG_C_MENOR EQU 0X07
  00000008            00019 TMP_timer EQU 0X08
  0000000A            00020 MODE_ACTUAL EQU 0X0A
                      00021  ; mode: (0s per defecte al init)
                      00022  ; b7[0:manual, 1:automatic]
                      00023  ; b6[0:no s'ha rebut la P encara pero estem en auto, 1:s'ha rebut la P]
                      00024  ; b5[0: mode manual joystick; 1: mode manual java]
                      00025  ; b4[0: pwm al servo X; 1: pwm al servo Y]
                      00026  ; b3[0: encara no ha arribat a 1segon. 1: ha arribat a 1 segon]
                      00027  ; b2[0: no record; 1: record actiu]
                      00028  ; b1[1:s'està reproduint NO-RECORD-NO SI-PLAY-SI; 0: no reproduint, normal]
                      00029  ; b0[0: podem enregistrar toogle joystick; 1: ja l'hem guardat un cop no tornar-hi]
  0000000B            00030 EUSART_INPUT EQU 0X0B
                      00031 
  0000000C            00032 TMP3 EQU 0X0C
  0000000D            00033 TMP4 EQU 0X0D
  0000000E            00034 VAR_CONVER EQU 0X0E
  0000000F            00035 VAR_COMP EQU 0X0F
  00000010            00036 PWM_VAR EQU 0X10
  00000011            00037 PWM_AUX EQU 0X11
  00000012            00038 COMPT_GRAUS EQU 0X12
  00000013            00039 TMP EQU 0X13
  00000014            00040 TMP2 EQU 0X14
  00000015            00041 VAR_CONVER2 EQU 0X15
  00000016            00042 VAR_COMP2 EQU 0X16
MPASM 5.86             NEWPIC_8B_GENERAL.ASM   3-15-2022  12:40:48         PAGE  2


LOC  OBJECT CODE     LINE SOURCE TEXT
  VALUE

  00000017            00043 PWM_VAR2 EQU 0X17
  00000018            00044 PWM_AUX2 EQU 0X18
  0000001A            00045 COMPT_GRAUS2 EQU 0X1A
  0000001B            00046 VAR_TOKEN2 EQU 0X1B
  0000001C            00047 ULTIMA_NOTA EQU 0X1C
  0000001D            00048 COMPTADOR_RAM EQU 0X1D
  0000001E            00049 TEMPS_LOW EQU 0X1E
  0000001F            00050 TEMPS_HIGH EQU 0X1F
  00000020            00051 FLAGS2 EQU 0x20
  00000021            00052 FLAGS3 EQU 0x21
  00000022            00053 FLAGS4 EQU 0x22
  00000023            00054 OFFSET EQU 0x23
  00000024            00055 NOTA_RAM EQU 0x24
  00000025            00056 TEMPS_HIGH_RAM EQU 0x25
  00000026            00057 TEMPS_LOW_RAM EQU 0x26
  00000027            00058 FLAG_ESPERAL EQU 0x27
  00000028            00059 FLAG_ESPERAH EQU 0x28
  00000029            00060 FLAG_TEMPS EQU 0x29
  00000030            00061 COPY_RAM EQU 0X30
                      00062 
                      00063     ORG 0x000
000000 EF?? F???      00064     GOTO MAIN
                      00065     ORG 0x008
000008 EF?? F???      00066     GOTO HIGH_RSI
                      00067     ORG 0x018
000018 0011           00068     RETFIE FAST
                      00069 ;-----------------------------------HIGH_RSI------------------------------------
00001A                00070 HIGH_RSI
00001A B4F2           00071     BTFSC INTCON, TMR0IF, 0
00001C EC?? F???      00072     CALL ACTION_TMR 
000020 0011           00073     RETFIE FAST
                      00074 ;---------------------------------CONFIG I INITS--------------------------------
000022                00075 CONFIG_PORTS
000022 0E03           00076     MOVLW b'00000011'
000024 6E92           00077     MOVWF TRISA,0
000026 9489           00078     BCF LATA,2,0
000028 9689           00079     BCF LATA,3,0
                      00080     
00002A 8093           00081     BSF TRISB, 0, 0
00002C 8293           00082     BSF TRISB, 1, 0
00002E 8493           00083     BSF TRISB, 2, 0
000030 8693           00084     BSF TRISB, 3, 0
000032 8893           00085     BSF TRISB, 4, 0
                      00086     
000034 6A95           00087     CLRF TRISD,0
000036 6A8C           00088     CLRF LATD,0
                      00089     
000038 0EC0           00090     MOVLW b'11000000'
00003A 6E94           00091     MOVWF TRISC,0
                      00092     
00003C 908B           00093     BCF LATC,0,0
00003E 928B           00094     BCF LATC,1,0
000040 948B           00095     BCF LATC,2,0
MPASM 5.86             NEWPIC_8B_GENERAL.ASM   3-15-2022  12:40:48         PAGE  3


LOC  OBJECT CODE     LINE SOURCE TEXT
  VALUE

000042 968B           00096     BCF LATC,3,0
000044 0012           00097     RETURN
                      00098     
000046                00099 INIT_VARS
000046 0E33           00100     MOVLW b'00110011'
000048 6E00           00101     MOVWF SEVEN_SEG_C,0
00004A 0E4F           00102     MOVLW b'01001111'
00004C 6E01           00103     MOVWF SEVEN_SEG_D,0
00004E 0E3B           00104     MOVLW b'00111011'
000050 6E02           00105     MOVWF SEVEN_SEG_E,0
000052 0E39           00106     MOVLW b'00111001'
000054 6E03           00107     MOVWF SEVEN_SEG_F
000056 0E7E           00108     MOVLW b'01111110'
000058 6E04           00109     MOVWF SEVEN_SEG_G
00005A 0E7D           00110     MOVLW b'01111101'
00005C 6E05           00111     MOVWF SEVEN_SEG_A
00005E 0E1F           00112     MOVLW b'00011111'
000060 6E06           00113     MOVWF SEVEN_SEG_B
000062 0E0B           00114     MOVLW b'00001011'
000064 6E07           00115     MOVWF SEVEN_SEG_C_MENOR
                      00116     
000066 6A0A           00117     CLRF MODE_ACTUAL,0
000068 6A1B           00118     CLRF VAR_TOKEN2, 0
00006A 6A29           00119     CLRF FLAG_TEMPS, 0
                      00120     
00006C 0E27           00121     MOVLW .39
00006E 6E10           00122     MOVWF PWM_VAR,0
000070 6E17           00123     MOVWF PWM_VAR2,0
                      00124     
                      00125     
000072 6AE9           00126     CLRF FSR0L,0
000074 6AEA           00127     CLRF FSR0H,0
                      00128     
000076 80EA           00129     BSF FSR0H,0,0
000078 6A1D           00130     CLRF COMPTADOR_RAM,0
00007A 6A1C           00131     CLRF ULTIMA_NOTA,0
00007C 6A1F           00132     CLRF TEMPS_HIGH, 0
00007E 6A1E           00133     CLRF TEMPS_LOW, 0
                      00134     
000080 0012           00135     RETURN
                      00136     
000082                00137 INIT_EUSART
000082 0E24           00138     movlw b'00100100'
000084 6EAC           00139     movwf TXSTA,0
000086 0E90           00140     movlw b'10010000'
000088 6EAB           00141     movwf RCSTA,0
00008A 0E08           00142     movlw b'00001000'
00008C 6EB8           00143     movwf BAUDCON,0
00008E 0E04           00144     movlw HIGH(.1040)
000090 6EB0           00145     movwf SPBRGH,0
000092 0E10           00146     movlw LOW(.1040)
000094 6EAF           00147     movwf SPBRG,0     
                      00148     
MPASM 5.86             NEWPIC_8B_GENERAL.ASM   3-15-2022  12:40:48         PAGE  4


LOC  OBJECT CODE     LINE SOURCE TEXT
  VALUE

000096                00149 CONFIG_ADC
000096 80C2           00150     BSF ADCON0, ADON, 0 ;Converter module enabled.
000098 0E0D           00151     MOVLW b'00001101'  ;AN0 analog
00009A 6EC1           00152     MOVWF ADCON1, 0
00009C 9EC0           00153     BCF ADCON2, ADFM, 0 ;Left justified
00009E 8AC0           00154     BSF ADCON2, 5, 0   ;Toquem aquests bits perqu? trigui m?s a convertir
0000A0 88C0           00155     BSF ADCON2, 4, 0
0000A2 84C0           00156     BSF ADCON2, 2, 0
0000A4 80C0           00157     BSF ADCON2, 0, 0
0000A6 0012           00158     RETURN    
0000A8                00159 CONFIG_TIMER
0000A8 0E91           00160     MOVLW b'10010001'
0000AA 6ED5           00161     MOVWF T0CON,0   
0000AC EC?? F???      00162     CALL CARREGA_TIMER
0000B0 0012           00163     RETURN
0000B2                00164 CARREGA_TIMER
0000B2 0E3C           00165     MOVLW HIGH(.15536);;cada 20ms
0000B4 6ED7           00166     MOVWF TMR0H,0
0000B6 0EB0           00167     MOVLW LOW(.15536)
0000B8 6ED6           00168     MOVWF TMR0L,0
0000BA 0012           00169     RETURN
0000BC                00170 CONFIG_INTERRUPTS
0000BC 0EE0           00171     MOVLW b'11100000'
0000BE 6EF2           00172     MOVWF INTCON,0
0000C0 9EF1           00173     BCF INTCON2,RBPU,0
                      00174     
0000C2 0012           00175     RETURN
                      00176     
                      00177 ;-----------------------------------FUNCIONS------------------------------------
                      00178 ;timer servo
0000C4                00179 ACTION_TMR
0000C4 EC?? F???      00180     CALL CARREGA_TIMER;reiniciem el timer
0000C8 94F2           00181     BCF INTCON,TMR0IF,0;quan salti una interrupcio qualsevol, nomes tenim timer0 de moment
                      00182     
0000CA A80A           00183     BTFSS MODE_ACTUAL,4,0
0000CC EC?? F???      00184     CALL PWM;si es 0 fem el normal X
0000D0 B80A           00185     BTFSC MODE_ACTUAL,4,0
0000D2 EC?? F???      00186     CALL PWM2;si es 1 fem l'Y
                      00187 
                      00188     
                      00189     
                      00190     ;Comptar temps entre nota i nota
0000D6 A40A           00191     BTFSS MODE_ACTUAL,2,0
0000D8 EF?? F???      00192     GOTO NEXT
                      00193     
                      00194     ;Comprovar si ha estat mes d'1 minut inactiu
0000DC 0EEA           00195     MOVLW b'11101010'
0000DE 5C1F           00196     SUBWF TEMPS_HIGH, 0, 0
0000E0 B4D8           00197     BTFSC STATUS, Z, 0
0000E2 EF?? F???      00198     GOTO COMPROVA_TEMPS_LOW ;60000 part high OK
0000E6 EF?? F???      00199     GOTO INCREMENTA_LOW  ;Sino cap a incrementar low normal
                      00200     
Warning[207]: Found label after column 1. (COMPROVA_TEMPS_LOW)
MPASM 5.86             NEWPIC_8B_GENERAL.ASM   3-15-2022  12:40:48         PAGE  5


LOC  OBJECT CODE     LINE SOURCE TEXT
  VALUE

0000EA                00201     COMPROVA_TEMPS_LOW
0000EA 0E60           00202         MOVLW b'01100000'
0000EC 5C1E           00203         SUBWF TEMPS_LOW, 0, 0
0000EE B4D8           00204         BTFSC STATUS, Z, 0
0000F0 EF?? F???      00205         GOTO MINUT
0000F4 EF?? F???      00206         GOTO INCREMENTA_LOW
                      00207         
                      00208     
Warning[207]: Found label after column 1. (MINUT)
0000F8                00209     MINUT
0000F8 940A           00210         BCF MODE_ACTUAL,2, 0  ;Si ha passat mes d'1 minut (60.000 -- 1110 1010 0110 0000), sortim d'enre
                            gistrar
0000FA EF?? F???      00211         GOTO NEXT
                      00212     
                      00213     
Warning[207]: Found label after column 1. (INCREMENTA_LOW)
0000FE                00214     INCREMENTA_LOW
0000FE C01E F021      00215         MOVFF TEMPS_LOW, FLAGS3 ;Movem el valor abans de sumar per no perdre'l en cas d'OV
000102 0E14           00216         MOVLW .20
000104 261E           00217         ADDWF TEMPS_LOW, 1, 0
000106 B6D8           00218         BTFSC STATUS, OV, 0
000108 EF?? F???      00219         GOTO OVER_FLOW
00010C EF?? F???      00220         GOTO NEXT
                      00221     
Warning[207]: Found label after column 1. (OVER_FLOW)
000110                00222     OVER_FLOW
000110 0E14           00223         MOVLW .20
000112 6E23           00224         MOVWF OFFSET, 0
000114 0EFF           00225         MOVLW .255
000116 6E22           00226         MOVWF FLAGS4, 0    ;Flags 4 val 255
000118 5021           00227         MOVF FLAGS3, 0, 0  ;Movem valor abans del OV al W
00011A 5C22           00228         SUBWF FLAGS4, 0, 0
00011C 5E23           00229         SUBWF OFFSET, 1, 0 ;20 - (255-valor) = offset
00011E C023 F01E      00230         MOVFF OFFSET, TEMPS_LOW
000122 061E           00231         DECF TEMPS_LOW, 1, 0
                      00232         
Warning[207]: Found label after column 1. (INCREMENTA_HIGH)
000124                00233     INCREMENTA_HIGH
000124 2A1F           00234         INCF TEMPS_HIGH, 1, 0
                      00235 
                      00236     
Warning[207]: Found label after column 1. (NEXT)
000126                00237     NEXT
                      00238     
                      00239     ;Comprovar si es prem pulsador change mode actual, mes d'1 segon
000126 A681           00240     BTFSS PORTB, 3, 0
000128 EF?? F???      00241     GOTO INCREMENTA_VAR
00012C EF?? F???      00242     GOTO RESET_VAR
                      00243     
Warning[207]: Found label after column 1. (INCREMENTA_VAR)
000130                00244     INCREMENTA_VAR
000130 2A1B           00245         INCF VAR_TOKEN2, 1, 0
000132 0E32           00246         MOVLW .50
MPASM 5.86             NEWPIC_8B_GENERAL.ASM   3-15-2022  12:40:48         PAGE  6


LOC  OBJECT CODE     LINE SOURCE TEXT
  VALUE

000134 5C1B           00247         SUBWF VAR_TOKEN2, 0, 0
000136 B4D8           00248         BTFSC STATUS, Z, 0
000138 860A           00249         BSF MODE_ACTUAL, 3, 0
00013A 0012           00250         RETURN
                      00251         
Warning[207]: Found label after column 1. (RESET_VAR)
00013C                00252     RESET_VAR
00013C 6A1B           00253         CLRF VAR_TOKEN2, 0
                      00254     
00013E 0012           00255     RETURN
000140                00256 PWM
000140 C010 F011      00257     MOVFF PWM_VAR, PWM_AUX
000144 8489           00258     BSF LATA,2,0
Warning[207]: Found label after column 1. (LOOP_ESPERAPWM)
000146                00259     LOOP_ESPERAPWM
000146 EC?? F???      00260         CALL ESPERA_GRAUS
00014A 2E10           00261         DECFSZ PWM_VAR,1,0
00014C EF?? F???      00262         GOTO LOOP_ESPERAPWM
000150 9489           00263     BCF LATA,2,0
000152 C011 F010      00264     MOVFF PWM_AUX, PWM_VAR
000156 0012           00265     RETURN
                      00266     
000158                00267 ESPERA_GRAUS
000158 0E29           00268     MOVLW .41 ;13us un sol grau, canviar a posicions
00015A 6E12           00269     MOVWF COMPT_GRAUS,0
Warning[207]: Found label after column 1. (LOOP_GRAUS)
00015C                00270     LOOP_GRAUS
00015C 2E12           00271         DECFSZ COMPT_GRAUS,1,0
00015E EF?? F???      00272         GOTO LOOP_GRAUS
000162 0012           00273     RETURN
                      00274 ;------------
000164                00275 PWM2
                      00276     
000164 C017 F018      00277     MOVFF PWM_VAR2, PWM_AUX2
000168 8689           00278     BSF LATA,3,0
Warning[207]: Found label after column 1. (LOOP_ESPERAPWM2)
00016A                00279     LOOP_ESPERAPWM2
00016A EC?? F???      00280         CALL ESPERA_GRAUS2
00016E 2E17           00281         DECFSZ PWM_VAR2,1,0
000170 EF?? F???      00282         GOTO LOOP_ESPERAPWM2
000174 9689           00283     BCF LATA,3,0
000176 C018 F017      00284     MOVFF PWM_AUX2, PWM_VAR2
00017A 0012           00285     RETURN
                      00286     
00017C                00287 ESPERA_GRAUS2
00017C 0E29           00288     MOVLW .41
00017E 6E1A           00289     MOVWF COMPT_GRAUS2,0
Warning[207]: Found label after column 1. (LOOP_GRAUS2)
000180                00290     LOOP_GRAUS2
000180 2E1A           00291         DECFSZ COMPT_GRAUS2,1,0
000182 EF?? F???      00292         GOTO LOOP_GRAUS2
000186 0012           00293     RETURN
                      00294     ;---------
MPASM 5.86             NEWPIC_8B_GENERAL.ASM   3-15-2022  12:40:48         PAGE  7


LOC  OBJECT CODE     LINE SOURCE TEXT
  VALUE

                      00295 ;--------------mode manual--------------
000188                00296 ENREGISTRAR
000188 C01C FFEE      00297     MOVFF ULTIMA_NOTA, POSTINC0
00018C C01E FFEE      00298     MOVFF TEMPS_LOW, POSTINC0
000190 C01F FFEE      00299     MOVFF TEMPS_HIGH, POSTINC0
000194 2A1D           00300     INCF COMPTADOR_RAM,1,0
000196 6A1E           00301     CLRF TEMPS_LOW, 0      ;Despres de guardar a la ram, netegem variables SEMPRE
000198 6A1F           00302     CLRF TEMPS_HIGH, 0
                      00303     
                      00304     ;COMPROVAR QUE ARRIBEM A LES 64 NOTES
00019A 0E05           00305     MOVLW .5
00019C 5C1D           00306     SUBWF COMPTADOR_RAM,0,0
00019E B4D8           00307     BTFSC STATUS,Z,0
0001A0 940A           00308     BCF MODE_ACTUAL,2,0
0001A2 0012           00309     RETURN
                      00310     
0001A4                00311 FUNCIO_MODE_MANUAL
                      00312     
0001A4 A40A           00313     BTFSS MODE_ACTUAL,2,0
0001A6 EF?? F???      00314     GOTO VERD
0001AA EF?? F???      00315     GOTO VERMELL
                      00316     
Warning[207]: Found label after column 1. (VERD)
0001AE                00317     VERD
0001AE 848B           00318     BSF LATC, 2,0;veRD
0001B0 EF?? F???      00319     GOTO POLLANCRE
                      00320 
Warning[207]: Found label after column 1. (VERMELL)
0001B4                00321     VERMELL
0001B4 828B           00322     BSF LATC, 1,0;veRMELL
0001B6 948B           00323     BCF LATC,2,0
                      00324     
Warning[207]: Found label after column 1. (POLLANCRE)
0001B8                00325     POLLANCRE
                      00326     
                      00327     
                      00328     
                      00329     
                      00330     ;codi funcio manual
0001B8 EC?? F???      00331     CALL MIRA_MODE_ENTRADA;joystick o java
                      00332     
0001BC AA0A           00333     BTFSS MODE_ACTUAL,5,0
0001BE EC?? F???      00334     CALL MOVIMENT_JOYSTICK
0001C2 BA0A           00335     BTFSC MODE_ACTUAL,5,0
0001C4 EC?? F???      00336     CALL MOVIMENT_JAVA_MANUAL
                      00337     
                      00338     
                      00339     
                      00340     ;EVITAR SORTIR
0001C8 B40A           00341     BTFSC MODE_ACTUAL,2,0
0001CA EF?? F???      00342     GOTO FUNCIO_MODE_MANUAL
                      00343     
                      00344     
MPASM 5.86             NEWPIC_8B_GENERAL.ASM   3-15-2022  12:40:48         PAGE  8


LOC  OBJECT CODE     LINE SOURCE TEXT
  VALUE

                      00345     ;NO ARRIBAR AQUI SI S'ESTA ENREGISTRANT
                      00346     
                      00347     
                      00348     
0001CE A481           00349     BTFSS PORTB,2,0
0001D0 EC?? F???      00350     CALL CONTROL_REBOTS_PLAY_BUTTON ;MIRAR SI PLAY
                      00351     
                      00352     
                      00353     
0001D4 A281           00354     BTFSS PORTB,1,0;si actiu (0) canvi mode
0001D6 EC?? F???      00355     CALL POLSADOR_REBOTS_CANVI_A_AUTO
                      00356     ;canvi per P EUSART.
0001DA AA9E           00357     BTFSS PIR1,RCIF,0
0001DC EF?? F???      00358     GOTO END_LOOP_MAIN;no eusart
0001E0 50AE           00359     MOVF RCREG,0,0
0001E2 6E0B           00360     MOVWF EUSART_INPUT,0
0001E4 0E50           00361     MOVLW 'P'
0001E6 620B           00362     CPFSEQ EUSART_INPUT,0
0001E8 EF?? F???      00363     GOTO END_LOOP_MAIN
0001EC 8E0A           00364     BSF MODE_ACTUAL,7,0;activem mode auto
0001EE 8C0A           00365     BSF MODE_ACTUAL,6,0;ACTIVEM AUTO AMB P JA REBUDA
0001F0 EF?? F???      00366     GOTO END_LOOP_MAIN
                      00367         
0001F4                00368 POLSADOR_REBOTS_CANVI_A_AUTO
0001F4 EC?? F???      00369   CALL ESPERA_meitat
0001F8 EC?? F???      00370   CALL ESPERA_meitat
0001FC B281           00371   BTFSC PORTB,1,0
0001FE 0012           00372   RETURN
000200 8E0A           00373   BSF MODE_ACTUAL,7,0   ;OKOKOKOKOK
Warning[207]: Found label after column 1. (ESPERA_DESCLICAR_CANVI_A_AUTO)
000202                00374     ESPERA_DESCLICAR_CANVI_A_AUTO
000202 A281           00375       BTFSS PORTB,1,0
000204 EF?? F???      00376       GOTO ESPERA_DESCLICAR_CANVI_A_AUTO
000208 0012           00377       RETURN
                      00378   
00020A                00379 POLSADOR_REBOTS_CANVI_A_MANUAL
00020A EC?? F???      00380   CALL ESPERA_meitat
00020E EC?? F???      00381   CALL ESPERA_meitat
000212 B281           00382   BTFSC PORTB,1,0
000214 0012           00383   RETURN
000216 9E0A           00384   BCF MODE_ACTUAL,7,0   ;OKOKOKOKOK
Warning[207]: Found label after column 1. (ESPERA_DESCLICAR_CANVI_A_MANUAL)
000218                00385     ESPERA_DESCLICAR_CANVI_A_MANUAL
000218 A281           00386       BTFSS PORTB,1,0
00021A EF?? F???      00387       GOTO ESPERA_DESCLICAR_CANVI_A_MANUAL
00021E 0012           00388       RETURN
                      00389     
000220                00390 MOVIMENT_JOYSTICK
                      00391     
000220 EC?? F???      00392     CALL PICAR_NOTA
000224 6A8C           00393     CLRF LATD,0
000226 980A           00394     BCF MODE_ACTUAL,4,0
                      00395 
MPASM 5.86             NEWPIC_8B_GENERAL.ASM   3-15-2022  12:40:48         PAGE  9


LOC  OBJECT CODE     LINE SOURCE TEXT
  VALUE

000228 84C2           00396     BSF ADCON0,CHS0,0   ;activar hoystick X PORTA0 per lectura
Warning[207]: Found label after column 1. (LOOP_ANALOG)
00022A                00397     LOOP_ANALOG
00022A 82C2           00398         BSF ADCON0, 1, 0  ;Fem la conversió
Warning[207]: Found label after column 1. (LOOP_CONVER)
00022C                00399         LOOP_CONVER
00022C B2C2           00400             BTFSC ADCON0, 1, 0  ;Esperem a que es faci la conversió i mirem què obtenim
00022E EF?? F???      00401             GOTO LOOP_CONVER
000232 CFC4 F00E      00402         MOVFF ADRESH, VAR_CONVER  ;Passem la conversió a la nostra variable
000236 0EC8           00403         MOVLW .200
000238 600E           00404         CPFSLT VAR_CONVER, 0
00023A EC?? F???      00405         CALL INCREMENT_ANALOG  ;Si estem per sobre de 240 incrementem PWM
00023E 0E0F           00406         MOVLW .15
000240 640E           00407         CPFSGT VAR_CONVER, 0
000242 EC?? F???      00408         CALL DECREMENT_ANALOG  ;Si estem per sota de 15 decrementem PWM
000246 0012           00409     RETURN
000248                00410 INCREMENT_ANALOG
000248 0E7B           00411         MOVLW .123;144=7notes+39init
00024A 5C10           00412         SUBWF PWM_VAR, 0, 0
00024C A4D8           00413         BTFSS STATUS, Z, 0  ;Si la suma no dona 0, decrementem
00024E EC?? F???      00414         CALL SUMA
Warning[207]: Found label after column 1. (LOOP_WAIT)
000252                00415         LOOP_WAIT
000252 82C2           00416             BSF ADCON0, 1, 0  ;Fem la conversió
Warning[207]: Found label after column 1. (LOOP_CWAIT)
000254                00417             LOOP_CWAIT
000254 B2C2           00418                 BTFSC ADCON0, 1, 0  ;Esperem a que es faci la conversió i mirem què obtenim
000256 EF?? F???      00419                 GOTO LOOP_CWAIT
00025A CFC4 F00F      00420                 MOVFF ADRESH, VAR_COMP  ;Passem la conversió a la nostra variable
00025E 0E8C           00421                 MOVLW .140
000260 5C0F           00422                 SUBWF VAR_COMP, 0, 0
000262 A8D8           00423                 BTFSS STATUS, N, 0  ;Si es negatiu vol dir que ja esta a la posicio inicial
000264 EF?? F???      00424             GOTO LOOP_WAIT      
                      00425         
000268 0012           00426         RETURN
00026A                00427 DECREMENT_ANALOG
00026A 0E27           00428     MOVLW .39
00026C 5C10           00429     SUBWF PWM_VAR, 0, 0
00026E A4D8           00430     BTFSS STATUS, Z, 0  ;Si la resta no dona 0, decrementem
000270 EC?? F???      00431     CALL RESTA
Warning[207]: Found label after column 1. (LOOP_WAITD)
000274                00432     LOOP_WAITD  ;Esperem a que el joystick torni a la seva posició
000274 82C2           00433         BSF ADCON0, 1, 0  ;Fem la conversió
Warning[207]: Found label after column 1. (LOOP_DWAIT)
000276                00434         LOOP_DWAIT
000276 B2C2           00435             BTFSC ADCON0, 1, 0  ;Esperem a que es faci la conversió i mirem què obtenim
000278 EF?? F???      00436             GOTO LOOP_DWAIT
00027C CFC4 F00F      00437             MOVFF ADRESH, VAR_COMP  ;Passem la conversió a la nostra variable
000280 0E64           00438             MOVLW .100
000282 5C0F           00439             SUBWF VAR_COMP, 0, 0
000284 B8D8           00440             BTFSC STATUS, N, 0
000286 EF?? F???      00441         GOTO LOOP_WAITD
00028A 0012           00442     RETURN
MPASM 5.86             NEWPIC_8B_GENERAL.ASM   3-15-2022  12:40:48         PAGE 10


LOC  OBJECT CODE     LINE SOURCE TEXT
  VALUE

00028C                00443 SUMA
00028C 0E0C           00444     MOVLW .12;increment pos
00028E 2610           00445     ADDWF PWM_VAR, 1, 0  ;Hem de sumar 5 graus cada vegada
000290 0012           00446     RETURN
000292                00447 RESTA
000292 0E0C           00448     MOVLW .12;dec pos
000294 5E10           00449     SUBWF PWM_VAR, 1, 0  ;Hem de restar 5 graus cada vegada
000296 0012           00450     RETURN
                      00451     
                      00452     
                      00453     
                      00454     
                      00455     
                      00456     
                      00457     
                      00458     
                      00459     
                      00460     
000298                00461 PICAR_NOTA
000298 880A           00462    BSF MODE_ACTUAL,4,0
                      00463     
00029A 94C2           00464    BCF ADCON0,CHS0,0;joystick Y AN0
00029C 82C2           00465    BSF ADCON0,1,0 ; Comencem la conversió
Warning[207]: Found label after column 1. (ESPERA_CONVERSIO)
00029E                00466    ESPERA_CONVERSIO
00029E B2C2           00467    BTFSC ADCON0,1,0
0002A0 EF?? F???      00468    GOTO ESPERA_CONVERSIO
                      00469    
0002A4 6A13           00470     CLRF TMP,0
0002A6 6A14           00471     CLRF TMP2,0
0002A8                00472 BUCLE_T
0002A8 5013           00473     MOVF TMP,0
0002AA 64C4           00474     CPFSGT ADRESH,0
0002AC EF?? F???      00475     GOTO T_TROBAT
0002B0 2A13           00476     INCF TMP,1,0
0002B2 B0D8           00477     BTFSC STATUS,C,0;val C per TMP?
0002B4 EF?? F???      00478     GOTO T_TROBAT
0002B8 2A14           00479     INCF TMP2,1,0
                      00480     
0002BA 5013           00481     MOVF TMP,0
0002BC 64C4           00482     CPFSGT ADRESH,0
0002BE EF?? F???      00483     GOTO T_TROBAT
0002C2 2A13           00484     INCF TMP,1,0
0002C4 2A13           00485     INCF TMP,1,0
0002C6 B0D8           00486     BTFSC STATUS,C,0;val C per TMP?
0002C8 EF?? F???      00487     GOTO T_TROBAT
0002CC 2A14           00488     INCF TMP2,1,0
0002CE EF?? F???      00489     GOTO BUCLE_T
0002D2                00490 T_TROBAT
                      00491     ;ENCENDRE NOTA
0002D2 0E05           00492     MOVLW .5
0002D4 6414           00493     CPFSGT TMP2,0
0002D6 EF?? F???      00494     GOTO CAGARRO2
MPASM 5.86             NEWPIC_8B_GENERAL.ASM   3-15-2022  12:40:48         PAGE 11


LOC  OBJECT CODE     LINE SOURCE TEXT
  VALUE

0002DA EF?? F???      00495     GOTO CAGARRO
                      00496     
Warning[207]: Found label after column 1. (CAGARRO2)
0002DE                00497     CAGARRO2
0002DE EC?? F???      00498     CALL MOSTRAR_NOTA
                      00499     
0002E2 B40A           00500     BTFSC MODE_ACTUAL,2,0; SI ESTEM ENREGISTRANT, GUARDAR LA NOTA mode manual-joystick
0002E4 EF?? F???      00501         GOTO ZONA_ENREGISTRAR
0002E8 EF?? F???      00502         GOTO CAGARRO
                      00503         
Warning[207]: Found label after column 1. (ZONA_ENREGISTRAR)
0002EC                00504     ZONA_ENREGISTRAR
0002EC A00A           00505         BTFSS MODE_ACTUAL,0,0
0002EE EC?? F???      00506         CALL ENREGISTRAR
0002F2 800A           00507         BSF MODE_ACTUAL,0,0
                      00508 
Warning[207]: Found label after column 1. (CAGARRO)
0002F4                00509     CAGARRO
0002F4 0E64           00510     MOVLW .100; COMPARADOR AMB HISTÈRESIS
0002F6 60C4           00511     CPFSLT ADRESH,0
0002F8 900A           00512     BCF MODE_ACTUAL,0,0
                      00513     
                      00514     ;filtre maxim
0002FA 0E27           00515     MOVLW .39;posicio minima joystick Y
0002FC 6414           00516     CPFSGT TMP2,0
0002FE EC?? F???      00517     CALL CORREGIR
                      00518     
Warning[207]: Found label after column 1. (FINAL_T)
000302                00519     FINAL_T
                      00520     ;ENVIAR POSICIO
000302 C014 F017      00521     MOVFF TMP2, PWM_VAR2
000306 880A           00522     BSF MODE_ACTUAL,4,0
                      00523 
                      00524     
000308 0012           00525     RETURN
                      00526     
00030A                00527 CORREGIR
00030A 0E27           00528     MOVLW .39;posicio minima joystick Y
00030C 6E14           00529     MOVWF TMP2,0
Warning[203]: Found opcode in column 1. (RETURN)
00030E 0012           00530 RETURN
                      00531     
000310                00532 MOSTRAR_NOTA
000310 0E28           00533     MOVLW .40;VALOR_INIT+1
000312 6410           00534     CPFSGT PWM_VAR,0
000314 EF?? F???      00535         GOTO MOSTRA_C
000318 0E34           00536     MOVLW .52;VALOR_INIT+1+NOTA
00031A 6410           00537     CPFSGT PWM_VAR,0
00031C EF?? F???      00538         GOTO MOSTRA_D
000320 0E40           00539     MOVLW .64;...
000322 6410           00540     CPFSGT PWM_VAR,0
000324 EF?? F???      00541         GOTO MOSTRA_E
000328 0E4C           00542     MOVLW .76
MPASM 5.86             NEWPIC_8B_GENERAL.ASM   3-15-2022  12:40:48         PAGE 12


LOC  OBJECT CODE     LINE SOURCE TEXT
  VALUE

00032A 6410           00543     CPFSGT PWM_VAR,0
00032C EF?? F???      00544         GOTO MOSTRA_F
000330 0E58           00545     MOVLW .88
000332 6410           00546     CPFSGT PWM_VAR,0
000334 EF?? F???      00547         GOTO MOSTRA_G
000338 0E64           00548     MOVLW .100
00033A 6410           00549     CPFSGT PWM_VAR,0
00033C EF?? F???      00550         GOTO MOSTRA_A
000340 0E70           00551     MOVLW .112
000342 6410           00552     CPFSGT PWM_VAR,0
000344 EF?? F???      00553         GOTO MOSTRA_B
000348 EF?? F???      00554         GOTO MOSTRA_C_MENOR
                      00555 
Warning[207]: Found label after column 1. (MOSTRA_A)
00034C                00556         MOSTRA_A
00034C C005 FF8C      00557             MOVFF SEVEN_SEG_A, LATD
000350 0E41           00558             MOVLW 'A'
000352 6E1C           00559             MOVWF ULTIMA_NOTA,0
000354 0012           00560         RETURN
Warning[207]: Found label after column 1. (MOSTRA_B)
000356                00561         MOSTRA_B
000356 C006 FF8C      00562             MOVFF SEVEN_SEG_B, LATD
00035A 0E42           00563             MOVLW 'B'
00035C 6E1C           00564             MOVWF ULTIMA_NOTA, 0
00035E 0012           00565         RETURN
Warning[207]: Found label after column 1. (MOSTRA_C)
000360                00566         MOSTRA_C
000360 C000 FF8C      00567             MOVFF SEVEN_SEG_C, LATD
000364 0E43           00568             MOVLW 'C'
000366 6E1C           00569             MOVWF ULTIMA_NOTA, 0
000368 0012           00570         RETURN
Warning[207]: Found label after column 1. (MOSTRA_D)
00036A                00571         MOSTRA_D
00036A C001 FF8C      00572             MOVFF SEVEN_SEG_D, LATD
00036E 0E44           00573             MOVLW 'D' 
000370 6E1C           00574             MOVWF ULTIMA_NOTA, 0
000372 0012           00575         RETURN
Warning[207]: Found label after column 1. (MOSTRA_E)
000374                00576         MOSTRA_E
000374 C002 FF8C      00577             MOVFF SEVEN_SEG_E,LATD
000378 0E45           00578             MOVLW 'E'
00037A 6E1C           00579             MOVWF ULTIMA_NOTA, 0
00037C 0012           00580         RETURN
Warning[207]: Found label after column 1. (MOSTRA_F)
00037E                00581         MOSTRA_F
00037E C003 FF8C      00582             MOVFF SEVEN_SEG_F,LATD
000382 0E46           00583             MOVLW 'F'
000384 6E1C           00584             MOVWF ULTIMA_NOTA, 0
000386 0012           00585         RETURN
Warning[207]: Found label after column 1. (MOSTRA_G)
000388                00586         MOSTRA_G
000388 C004 FF8C      00587             MOVFF SEVEN_SEG_G,LATD
00038C 0E47           00588             MOVLW 'G'
MPASM 5.86             NEWPIC_8B_GENERAL.ASM   3-15-2022  12:40:48         PAGE 13


LOC  OBJECT CODE     LINE SOURCE TEXT
  VALUE

00038E 6E1C           00589             MOVWF ULTIMA_NOTA, 0
000390 0012           00590         RETURN
Warning[207]: Found label after column 1. (MOSTRA_C_MENOR)
000392                00591         MOSTRA_C_MENOR
000392 C007 FF8C      00592             MOVFF SEVEN_SEG_C_MENOR,LATD
000396 0E63           00593             MOVLW 'c'
000398 6E1C           00594             MOVWF ULTIMA_NOTA, 0
00039A 0012           00595         RETURN
                      00596     
                      00597     
                      00598     
                      00599     
                      00600     
                      00601     
00039C                00602 MIRA_MODE_ENTRADA
00039C B681           00603     BTFSC PORTB,3,0
00039E 0012           00604     RETURN
0003A0 EC?? F???      00605     CALL ESPERA_meitat
0003A4 EC?? F???      00606     CALL ESPERA_meitat
0003A8 A681           00607     BTFSS PORTB,3,0
0003AA EF?? F???      00608     GOTO ESPERA_DESCLICAR_MODE_TOCAR
0003AE 0012           00609     RETURN
                      00610     
Warning[207]: Found label after column 1. (ESPERA_DESCLICAR_MODE_TOCAR)
0003B0                00611     ESPERA_DESCLICAR_MODE_TOCAR
0003B0 A681           00612     BTFSS PORTB,3,0
0003B2 EF?? F???      00613     GOTO ESPERA_DESCLICAR_MODE_TOCAR
                      00614     
0003B6 B60A           00615     BTFSC MODE_ACTUAL, 3, 0
0003B8 EF?? F???      00616     GOTO RECORD
                      00617 
0003BC 7A0A           00618     BTG MODE_ACTUAL,5,0;FLAG JOYSTICK O JAVA
0003BE 768B           00619     BTG LATC,3,0
0003C0 0012           00620     RETURN
                      00621     
Warning[207]: Found label after column 1. (RECORD)
0003C2                00622     RECORD
0003C2 960A           00623         BCF MODE_ACTUAL, 3, 0;Resetegem flag
0003C4 740A           00624         BTG MODE_ACTUAL,2,0
0003C6 0EBF           00625         MOVLW b'10111111'  ;Netegem 191 --> 64*3 = 192
0003C8 6E1D           00626         MOVWF COMPTADOR_RAM,0
                      00627         
                      00628         ;NETEJAR RAM
0003CA 6AE9           00629         CLRF FSR0L,0
Warning[207]: Found label after column 1. (BUCLE_NETEJA_RAM)
0003CC                00630         BUCLE_NETEJA_RAM
0003CC 0E00           00631             MOVLW b'00000000'
0003CE 6EEE           00632             MOVWF POSTINC0,0
0003D0 2E1D           00633             DECFSZ COMPTADOR_RAM,1,0
0003D2 EF?? F???      00634             GOTO BUCLE_NETEJA_RAM
0003D6 6AE9           00635     CLRF FSR0L,0
0003D8 0012           00636     RETURN
                      00637     
MPASM 5.86             NEWPIC_8B_GENERAL.ASM   3-15-2022  12:40:48         PAGE 14


LOC  OBJECT CODE     LINE SOURCE TEXT
  VALUE

0003DA                00638 ESPERA_TX
0003DA A2AC           00639     BTFSS TXSTA,TRMT,0
0003DC EF?? F???      00640     GOTO ESPERA_TX
0003E0 0012           00641     RETURN   
                      00642     
0003E2                00643 MOVIMENT_JAVA_MANUAL
0003E2 AA9E           00644     BTFSS PIR1,RCIF,0
0003E4 0012           00645     RETURN
0003E6 50AE           00646     MOVF RCREG,0,0
0003E8 6E0B           00647     MOVWF EUSART_INPUT,0
                      00648     
Warning[208]: Label truncated at 32 characters. (MOVIMENT_JAVA_MANUAL_SI_ENREGISTRAR_TAMBE)
0003EA                00649 MOVIMENT_JAVA_MANUAL_SI_ENREGISTRAR_TAMBE
                      00650     
0003EA 980A           00651     BCF MODE_ACTUAL,4,0;CANVI SERVO TOCANT
0003EC 6A8C           00652     CLRF LATD,0
0003EE 0E43           00653     MOVLW 'C'
0003F0 620B           00654     CPFSEQ EUSART_INPUT,0
0003F2 EF?? F???      00655     GOTO NEXT_C
0003F6 0E27           00656     MOVLW .39;valor init C
0003F8 6E10           00657     MOVWF PWM_VAR
0003FA EF?? F???      00658     GOTO TROBAT_NOTA
0003FE                00659 NEXT_C
0003FE 0E44           00660     MOVLW 'D'
000400 620B           00661     CPFSEQ EUSART_INPUT,0
000402 EF?? F???      00662     GOTO NEXT_D
000406 0E33           00663     MOVLW .51;posicio D
000408 6E10           00664     MOVWF PWM_VAR
00040A EF?? F???      00665     GOTO TROBAT_NOTA
00040E                00666 NEXT_D
00040E 0E45           00667     MOVLW 'E'
000410 620B           00668     CPFSEQ EUSART_INPUT,0
000412 EF?? F???      00669     GOTO NEXT_E
000416 0E3F           00670     MOVLW .63;posicio E
000418 6E10           00671     MOVWF PWM_VAR
00041A EF?? F???      00672     GOTO TROBAT_NOTA
00041E                00673 NEXT_E
00041E 0E46           00674     MOVLW 'F'
000420 620B           00675     CPFSEQ EUSART_INPUT,0
000422 EF?? F???      00676     GOTO NEXT_F
000426 0E4B           00677     MOVLW .75;posicio F
000428 6E10           00678     MOVWF PWM_VAR
00042A EF?? F???      00679     GOTO TROBAT_NOTA
00042E                00680 NEXT_F
00042E 0E47           00681     MOVLW 'G'
000430 620B           00682     CPFSEQ EUSART_INPUT,0
000432 EF?? F???      00683     GOTO NEXT_G
000436 0E57           00684     MOVLW .87;posicio G
000438 6E10           00685     MOVWF PWM_VAR
00043A EF?? F???      00686     GOTO TROBAT_NOTA
00043E                00687 NEXT_G
00043E 0E41           00688     MOVLW 'A'
000440 620B           00689     CPFSEQ EUSART_INPUT,0
MPASM 5.86             NEWPIC_8B_GENERAL.ASM   3-15-2022  12:40:48         PAGE 15


LOC  OBJECT CODE     LINE SOURCE TEXT
  VALUE

000442 EF?? F???      00690     GOTO NEXT_A
000446 0E63           00691     MOVLW .99;posicio A
000448 6E10           00692     MOVWF PWM_VAR
00044A EF?? F???      00693     GOTO TROBAT_NOTA
00044E                00694 NEXT_A
00044E 0E42           00695     MOVLW 'B'
000450 620B           00696     CPFSEQ EUSART_INPUT,0
000452 EF?? F???      00697     GOTO NEXT_B
000456 0E6F           00698     MOVLW .111;posicio B
000458 6E10           00699     MOVWF PWM_VAR
00045A EF?? F???      00700     GOTO TROBAT_NOTA
00045E                00701 NEXT_B
00045E 0E63           00702     MOVLW 'c'
000460 620B           00703     CPFSEQ EUSART_INPUT,0
000462 EF?? F???      00704     GOTO FAIL_INPUT
000466 0E7B           00705     MOVLW .123;posicio c'
000468 6E10           00706     MOVWF PWM_VAR
00046A EF?? F???      00707     GOTO TROBAT_NOTA
Warning[207]: Found label after column 1. (FAIL_INPUT)
00046E                00708     FAIL_INPUT
00046E 0012           00709         RETURN
Warning[207]: Found label after column 1. (TROBAT_NOTA)
000470                00710     TROBAT_NOTA
                      00711     
                      00712     ;BAIXAR EL BRAÇ------------------
                      00713     
                      00714     ;CALL MOSTRAR_NOTA ;DESCOMENTAR SI ES VOL VEURE LA NOTA ABANS
                      00715     
                      00716     ;ESPEREM X MOGUT -----llarg
000470 0EFF           00717     MOVLW .255
000472 6E13           00718     MOVWF TMP,0
Warning[207]: Found label after column 1. (LOOP_ESPERA_X)
000474                00719     LOOP_ESPERA_X
000474 0EFF           00720         MOVLW .255
000476 6E14           00721         MOVWF TMP2,0
Warning[207]: Found label after column 1. (LOOP_ESPERA_X_2)
000478                00722         LOOP_ESPERA_X_2
000478 0E08           00723             MOVLW .8;TEMPS ESPERA ENTRE X I Y
00047A 6E0C           00724             MOVWF TMP3,0
Warning[207]: Found label after column 1. (LOOP_ESPERA_X_3)
00047C                00725             LOOP_ESPERA_X_3
00047C 2E0C           00726                 DECFSZ TMP3,1,0
00047E EF?? F???      00727                 GOTO LOOP_ESPERA_X_3
000482 2E14           00728             DECFSZ TMP2,1,0
000484 EF?? F???      00729             GOTO LOOP_ESPERA_X_2
000488 2E13           00730         DECFSZ TMP,1,0
00048A EF?? F???      00731         GOTO LOOP_ESPERA_X
                      00732     
                      00733 ;MOVEM Y ABALL
00048E EC?? F???      00734     CALL MOSTRAR_NOTA
                      00735     
000492 0E27           00736     MOVLW .39;POSICIO ABALL
000494 6E17           00737     MOVWF PWM_VAR2
MPASM 5.86             NEWPIC_8B_GENERAL.ASM   3-15-2022  12:40:48         PAGE 16


LOC  OBJECT CODE     LINE SOURCE TEXT
  VALUE

                      00738     
000496 880A           00739     BSF MODE_ACTUAL,4,0;activar PWM Y
                      00740     ;ESPEREM QUE BAIXI
                      00741     
000498 0EFF           00742     MOVLW .255
00049A 6E13           00743     MOVWF TMP,0
Warning[207]: Found label after column 1. (LOOP_ESPERA_BAIXADA)
00049C                00744     LOOP_ESPERA_BAIXADA
00049C 0EFF           00745         MOVLW .255
00049E 6E14           00746         MOVWF TMP2,0
Warning[207]: Found label after column 1. (LOOP_ESPERA_BAIXADA_2)
0004A0                00747         LOOP_ESPERA_BAIXADA_2
0004A0 0E02           00748             MOVLW .2;TEMPS ESPERA ENTRE PUJAR I BAIXAR Y
0004A2 6E0C           00749             MOVWF TMP3
Warning[207]: Found label after column 1. (LOOP_ESPERA_BAIXADA_3)
0004A4                00750             LOOP_ESPERA_BAIXADA_3
0004A4 2E0C           00751                 DECFSZ TMP3,1,0
0004A6 EF?? F???      00752                 GOTO LOOP_ESPERA_BAIXADA_3
0004AA 2E14           00753             DECFSZ TMP2,1,0
0004AC EF?? F???      00754             GOTO LOOP_ESPERA_BAIXADA_2
0004B0 2E13           00755     DECFSZ TMP,1,0
0004B2 EF?? F???      00756     GOTO LOOP_ESPERA_BAIXADA
                      00757     
                      00758     ;PUGEM Y
                      00759 
0004B6 0E37           00760     MOVLW .55;posicio elevada en manual-java
0004B8 6E17           00761     MOVWF PWM_VAR2,0
                      00762     
                      00763     ;gravar nota en mode pc-manual-eusart-sio
0004BA B40A           00764     BTFSC MODE_ACTUAL,2,0
0004BC EC?? F???      00765         CALL ENREGISTRAR
                      00766     
                      00767     
Warning[203]: Found opcode in column 1. (RETURN)
0004C0 0012           00768 RETURN
                      00769     
                      00770 ;--------------mode automatic--------------
0004C2                00771 ENVIA_K
0004C2 0E4B           00772     MOVLW 'K'
0004C4 6EAD           00773     MOVWF TXREG,0
0004C6 EC?? F???      00774     CALL ESPERA_TX
Warning[203]: Found opcode in column 1. (RETURN)
0004CA 0012           00775 RETURN
                      00776     
                      00777     
0004CC                00778 FUNCIO_MODE_AUTOMATIC
0004CC 808B           00779     BSF LATC,0,0;blau
0004CE 968B           00780     BCF LATC,3,0
0004D0 AC0A           00781     BTFSS MODE_ACTUAL,6,0
0004D2 EF?? F???      00782     GOTO PRE_AUTO_MODE
                      00783     
0004D6 AE20           00784     BTFSS FLAGS2,7,0
0004D8 EC?? F???      00785     CALL ENVIA_K
MPASM 5.86             NEWPIC_8B_GENERAL.ASM   3-15-2022  12:40:48         PAGE 17


LOC  OBJECT CODE     LINE SOURCE TEXT
  VALUE

                      00786     
                      00787     ;INICI CANÇÓ
Warning[207]: Found label after column 1. (REPRODUINT_AUTO_BUCLE)
0004DC                00788     REPRODUINT_AUTO_BUCLE
                      00789         ;BSF FLAGS2,7,0 ;DESCOMENTAR  SI FA FALTA
                      00790         
0004DC EC?? F???      00791         CALL MOVIMENT_JAVA_MANUAL;EL MANUAL AMB JAVA JA ENS SERVEIX PEL AUTO
0004E0 6A8C           00792         CLRF LATD,0;NETEJA LA PANTALLA PER LA SEGUENT NOTA
                      00793         ;MIRAR SI S'HA ACABAT LA CANÇÓ
0004E2 0E53           00794         MOVLW 'S'
0004E4 620B           00795         CPFSEQ EUSART_INPUT,0
0004E6 EF?? F???      00796         GOTO REPRODUINT_AUTO_BUCLE;1: NO HA SALTAT
0004EA 9C0A           00797         BCF MODE_ACTUAL,6,0;netejar que espera una altra P per la seguent canço
Warning[207]: Found label after column 1. (FI_SONG)
0004EC                00798     FI_SONG
                      00799     
                      00800     ;BTFSS PORTB,1,0;si cliquen manual, activem manual
                      00801     ;CALL POLSADOR_REBOTS_CANVI_A_MANUAL
0004EC EF?? F???      00802     GOTO END_LOOP_MAIN
                      00803     
                      00804     
Warning[207]: Found label after column 1. (PRE_AUTO_MODE)
0004F0                00805     PRE_AUTO_MODE
                      00806 
                      00807         ;mirar btn
0004F0 B281           00808         BTFSC PORTB,1,0
0004F2 EF?? F???      00809         GOTO PRE_AUTO_MODE_CHECK_PLAY_BUTTON
0004F6 EC?? F???      00810         CALL POLSADOR_REBOTS_CANVI_A_MANUAL
0004FA EF?? F???      00811         GOTO END_LOOP_MAIN
                      00812         
Warning[207]: Found label after column 1. (PRE_AUTO_MODE_CHECK_PLAY_BUTTON)
0004FE                00813         PRE_AUTO_MODE_CHECK_PLAY_BUTTON
0004FE A481           00814             BTFSS PORTB,2,0
000500 EC?? F???      00815             CALL CONTROL_REBOTS_PLAY_BUTTON
                      00816         
Warning[207]: Found label after column 1. (PRE_AUTO_MODE_CHECK_PIR)
000504                00817         PRE_AUTO_MODE_CHECK_PIR
000504 AA9E           00818             BTFSS PIR1,RCIF,0
000506 EF?? F???      00819             GOTO PRE_AUTO_MODE;no eusart
00050A 50AE           00820             MOVF RCREG,0,0
00050C 6E0B           00821             MOVWF EUSART_INPUT,0
00050E 0E50           00822             MOVLW 'P'
000510 620B           00823             CPFSEQ EUSART_INPUT,0
000512 EF?? F???      00824             GOTO PRE_AUTO_MODE
000516 8C0A           00825             BSF MODE_ACTUAL,6,0
000518 EF?? F???      00826             GOTO FUNCIO_MODE_AUTOMATIC
                      00827             
                      00828             
00051C                00829 CONTROL_REBOTS_PLAY_BUTTON
00051C EC?? F???      00830     CALL ESPERA_meitat
000520 EC?? F???      00831     CALL ESPERA_meitat
000524 B481           00832     BTFSC PORTB,2,0
000526 0012           00833     RETURN    ;ERA FAKE NAH BRO
MPASM 5.86             NEWPIC_8B_GENERAL.ASM   3-15-2022  12:40:48         PAGE 18


LOC  OBJECT CODE     LINE SOURCE TEXT
  VALUE

Warning[208]: Label truncated at 32 characters. (CONTROL_REBOTS_PLAY_BUTTON_DESCLICAR)
000528                00834 CONTROL_REBOTS_PLAY_BUTTON_DESCLICAR
000528 A481           00835     BTFSS PORTB,2,0
00052A EF?? F???      00836     GOTO CONTROL_REBOTS_PLAY_BUTTON_DESCLICAR       ;ENCARA CLICA EL RATA
Warning[208]: Label truncated at 32 characters. (CONTROL_REBOTS_PLAY_BUTTON_BAIXADA)
00052E                00837 CONTROL_REBOTS_PLAY_BUTTON_BAIXADA
00052E EC?? F???      00838     CALL ESPERA_meitat
000532 EC?? F???      00839     CALL ESPERA_meitat
000536 A481           00840     BTFSS PORTB,2,0                 ;EL MOLT PUTA ENS HA FET LA PUA, NO HA CLICAT EN REALITAT
000538 EF?? F???      00841     GOTO CONTROL_REBOTS_PLAY_BUTTON_BAIXADA
00053C EC?? F???      00842     CALL PLAY_RAM_SONG ;EL NOM DE LA FUNCIO AMB CALL/RETURN QUE REPRODUEIX EL QUE ESTIGUI A LA RAM
000540 0012           00843     RETURN
                      00844 
000542                00845 ESPERA_meitat
000542 680C           00846     SETF TMP3,0
000544                00847 BUCLE_D_1
000544 680D           00848     SETF TMP4,0
000546                00849 BUCLE2_D_1
000546 2E0D           00850     DECFSZ TMP4,f,0
000548 EF?? F???      00851     GOTO BUCLE2_D_1
00054C 2E0C           00852     DECFSZ TMP3,f,0
00054E EF?? F???      00853     GOTO BUCLE_D_1
000552 0012           00854     RETURN
                      00855  
                      00856     
000554                00857 PLAY_RAM_SONG
000554 0E00           00858     MOVLW .0
000556 5C1D           00859     SUBWF COMPTADOR_RAM,0,0
000558 B4D8           00860     BTFSC STATUS,Z,0
00055A 0012           00861     RETURN;NO MIRAR RES SI NO HI HA NOTES
                      00862     
00055C C01D F030      00863     MOVFF COMPTADOR_RAM, COPY_RAM
                      00864     
000560 820A           00865     BSF MODE_ACTUAL,1,0;FLAG REPRODUINT
000562 6AE9           00866     CLRF FSR0L, 0
Warning[207]: Found label after column 1. (LOOP_LLEGEIX)
000564                00867     LOOP_LLEGEIX
000564 CFEE F024      00868         MOVFF POSTINC0, NOTA_RAM
000568 CFEE F026      00869         MOVFF POSTINC0, TEMPS_LOW_RAM
00056C CFEE F025      00870         MOVFF POSTINC0, TEMPS_HIGH_RAM
                      00871         
                      00872         ;NOTA PANTALLA I NOTA MOVIMENT --START
000570 C024 F00B      00873             MOVFF NOTA_RAM, EUSART_INPUT;PER APROFITAT LA FUNCIO QUE JA TENIM DEL JAVA ENGANYEM D'ON ENS
                             VE LA NOTA
000574 EC?? F???      00874             CALL MOVIMENT_JAVA_MANUAL_SI_ENREGISTRAR_TAMBE
                      00875             ;NOTA PANTALLA I NOTA MOVIMENT --END
                      00876         
Warning[207]: Found label after column 1. (LOOP_TEMPS)
000578                00877         LOOP_TEMPS
000578 EC?? F???      00878             CALL ESPERA_MS
00057C B029           00879             BTFSC FLAG_TEMPS, 0, 0
00057E EF?? F???      00880             GOTO LAST_ITERACIO
000582 0626           00881             DECF TEMPS_LOW_RAM, 1, 0
MPASM 5.86             NEWPIC_8B_GENERAL.ASM   3-15-2022  12:40:48         PAGE 19


LOC  OBJECT CODE     LINE SOURCE TEXT
  VALUE

000584 B4D8           00882             BTFSC STATUS, Z, 0 ;Mirem si hem arribat a 0
000586 EC?? F???      00883             CALL RESET_VARR
00058A EF?? F???      00884             GOTO LOOP_TEMPS
Warning[207]: Found label after column 1. (LAST_ITERACIO)
00058E                00885             LAST_ITERACIO
00058E 0626           00886             DECF TEMPS_LOW_RAM, 1, 0
000590 A4D8           00887             BTFSS STATUS, Z, 0 ;Si es ultima iteracio i arribem a 0, sortim
000592 EF?? F???      00888             GOTO LOOP_TEMPS
                      00889             
                      00890             
                      00891             
                      00892 
                      00893             
000596 2E1D           00894         DECFSZ COMPTADOR_RAM, 1, 0  ;Llegim tot el que tenim guardat
000598 EF?? F???      00895         GOTO LOOP_LLEGEIX
00059C 6A29           00896         CLRF FLAG_TEMPS, 0
00059E 920A           00897         BCF MODE_ACTUAL,1,0;FLAG REPRODUINT
0005A0 C030 F01D      00898             MOVFF COPY_RAM, COMPTADOR_RAM
                      00899             
0005A4 0012           00900     RETURN
                      00901 
0005A6                00902 RESET_VARR
0005A6 0EFF           00903     MOVLW .255
0005A8 6E26           00904     MOVWF TEMPS_LOW_RAM
0005AA 0625           00905     DECF TEMPS_HIGH_RAM, 1, 0
0005AC B4D8           00906     BTFSC STATUS, Z, 0 ;Mirem si hem arribat a 0
0005AE 8029           00907     BSF FLAG_TEMPS, 0, 0
0005B0 0012           00908     RETURN
                      00909     
0005B2                00910 ESPERA_MS ;1ms --> 10.000 cicles
0005B2 0E0C           00911     MOVLW HIGH(.3325)    ;1 cicle
0005B4 6E28           00912     MOVWF FLAG_ESPERAH, 0     ;1 cicle
0005B6 0EFD           00913     MOVLW LOW(.3325)    ;1 cicle
0005B8 6E27           00914     MOVWF FLAG_ESPERAL, 0
Warning[207]: Found label after column 1. (LOOP_MS)
0005BA                00915     LOOP_MS
0005BA 4E27           00916         DCFSNZ FLAG_ESPERAL, 1, 0
0005BC 2E28           00917         DECFSZ FLAG_ESPERAH, 1, 0  ;Iteracio sense salt = 3 cicles
0005BE EF?? F???      00918         GOTO LOOP_MS           ;Iteracio amb salt = 2 cicles
                      00919                                    ;10000-2-2-1-1-22  --> 3*(x-1)+2 = 9982   x = 3325
0005C2 0000           00920     NOP  ;1 cicle
0005C4 0000           00921     NOP  ;1 cicle
0005C6 0012           00922     RETURN  ;2 cicles 
                      00923 
                      00924 ;--------------------------------------MAIN-------------------------------------
0005C8                00925 MAIN
                      00926 
0005C8 EC?? F???      00927     CALL CONFIG_PORTS
0005CC EC?? F???      00928     CALL INIT_VARS
0005D0 EC?? F???      00929     CALL INIT_EUSART
0005D4 EC?? F???      00930     CALL CONFIG_INTERRUPTS
0005D8 EC?? F???      00931     CALL CONFIG_TIMER
0005DC EC?? F???      00932     CALL CONFIG_ADC
MPASM 5.86             NEWPIC_8B_GENERAL.ASM   3-15-2022  12:40:48         PAGE 20


LOC  OBJECT CODE     LINE SOURCE TEXT
  VALUE

                      00933 
0005E0                00934 LOOP_MAIN;bucle del programa
                      00935     ;entrar als modes
                      00936     ;nota: els canvis de modes es fan dins els funcio_mode_xxxx
0005E0 AE0A           00937     BTFSS MODE_ACTUAL,7,0
0005E2 EF?? F???      00938     GOTO FUNCIO_MODE_MANUAL;aqui manual
0005E6 EF?? F???      00939     GOTO FUNCIO_MODE_AUTOMATIC;aqui auto
                      00940     
                      00941     
                      00942     
                      00943     
                      00944     
Warning[207]: Found label after column 1. (END_LOOP_MAIN)
0005EA                00945     END_LOOP_MAIN
                      00946         ;netejar leds
0005EA 908B           00947         BCF LATC,0,0
0005EC 928B           00948         BCF LATC,1,0
0005EE 948B           00949         BCF LATC,2,0
0005F0 6A8C           00950         CLRF LATD,0
                      00951 
0005F2 EF?? F???      00952         GOTO LOOP_MAIN
Warning[205]: Found directive in column 1. (END)
                      00953 END
MPASM 5.86             NEWPIC_8B_GENERAL.ASM   3-15-2022  12:40:48         PAGE 21


SYMBOL TABLE
  LABEL                             VALUE 

A                                 00000000
ABDEN                             00000000
ABDOVF                            00000007
ACCESS                            00000000
ACKDT                             00000005
ACKEN                             00000004
ACKSTAT                           00000006
ACQT0                             00000003
ACQT1                             00000004
ACQT2                             00000005
ACTION_TMR                        000000C4
ADCON0                            00000FC2
ADCON1                            00000FC1
ADCON2                            00000FC0
ADCS0                             00000000
ADCS1                             00000001
ADCS2                             00000002
ADDEN                             00000003
ADEN                              00000003
ADFM                              00000007
ADIE                              00000006
ADIF                              00000006
ADIP                              00000006
ADMSK1                            00000001
ADMSK2                            00000002
ADMSK3                            00000003
ADMSK4                            00000004
ADMSK5                            00000005
ADON                              00000000
ADRES                             00000FC3
ADRESH                            00000FC4
ADRESL                            00000FC3
AN0                               00000000
AN1                               00000001
AN10                              00000001
AN11                              00000004
AN12                              00000000
AN2                               00000002
AN3                               00000003
AN4                               00000005
AN5                               00000000
AN6                               00000001
AN7                               00000002
AN8                               00000002
AN9                               00000003
BANKED                            00000001
BAUDCON                           00000FB8
BAUDCTL                           00000FB8
BCLIE                             00000003
BCLIF                             00000003
BCLIP                             00000003
BF                                00000000
BGST                              00000005
MPASM 5.86             NEWPIC_8B_GENERAL.ASM   3-15-2022  12:40:48         PAGE 22


SYMBOL TABLE
  LABEL                             VALUE 

BOR                               00000000
BRG16                             00000003
BRGH                              00000002
BSR                               00000FE0
BUCLE2_D_1                        00000546
BUCLE_D_1                         00000544
BUCLE_NETEJA_RAM                  000003CC
BUCLE_T                           000002A8
C                                 00000000
C1INV                             00000004
C1N                               00000000
C1OUT_CMCON                       00000006
C1OUT_PORTA                       00000004
C1P                               00000003
C2INV                             00000005
C2N                               00000001
C2OUT_CMCON                       00000007
C2OUT_PORTA                       00000005
C2P                               00000002
CAGARRO                           000002F4
CAGARRO2                          000002DE
CARREGA_TIMER                     000000B2
CCP1                              00000002
CCP1CON                           00000FBD
CCP1IE                            00000002
CCP1IF                            00000002
CCP1IP                            00000002
CCP1M0                            00000000
CCP1M1                            00000001
CCP1M2                            00000002
CCP1M3                            00000003
CCP1X                             00000005
CCP1Y                             00000004
CCP2CON                           00000FBA
CCP2IE                            00000000
CCP2IF                            00000000
CCP2IP                            00000000
CCP2M0                            00000000
CCP2M1                            00000001
CCP2M2                            00000002
CCP2M3                            00000003
CCP2X                             00000005
CCP2Y                             00000004
CCP2_PORTB                        00000003
CCP2_PORTC                        00000001
CCPR1                             00000FBE
CCPR1H                            00000FBF
CCPR1L                            00000FBE
CCPR2                             00000FBB
CCPR2H                            00000FBC
CCPR2L                            00000FBB
CFGS                              00000006
CHS0                              00000002
MPASM 5.86             NEWPIC_8B_GENERAL.ASM   3-15-2022  12:40:48         PAGE 23


SYMBOL TABLE
  LABEL                             VALUE 

CHS1                              00000003
CHS2                              00000004
CHS3                              00000005
CIS                               00000003
CK                                00000006
CKE                               00000006
CKP                               00000004
CLKI                              00000007
CLKO                              00000006
CM0                               00000000
CM1                               00000001
CM2                               00000002
CMCON                             00000FB4
CMIE                              00000006
CMIF                              00000006
CMIP                              00000006
COMPROVA_TEMPS_LOW                000000EA
COMPTADOR_RAM                     0000001D
COMPT_GRAUS                       00000012
COMPT_GRAUS2                      0000001A
CONFIG_ADC                        00000096
CONFIG_INTERRUPTS                 000000BC
CONFIG_PORTS                      00000022
CONFIG_TIMER                      000000A8
CONTROL_REBOTS_PLAY_BUTTON        0000051C
CONTROL_REBOTS_PLAY_BUTTON_BAIXA  0000052E
CONTROL_REBOTS_PLAY_BUTTON_DESCL  00000528
COPY_RAM                          00000030
CORREGIR                          0000030A
CREN                              00000004
CS                                00000002
CSRC                              00000007
CVR0                              00000000
CVR1                              00000001
CVR2                              00000002
CVR3                              00000003
CVRCON                            00000FB5
CVREF                             00000002
CVREN                             00000007
CVROE                             00000006
CVRR                              00000005
CVRSS                             00000004
D                                 00000005
DC                                00000001
DC1B0                             00000004
DC1B1                             00000005
DC2B0                             00000004
DC2B1                             00000005
DDRA                              TRISA
DDRB                              TRISB
DDRC                              TRISC
DDRD                              TRISD
DDRE                              TRISE
MPASM 5.86             NEWPIC_8B_GENERAL.ASM   3-15-2022  12:40:48         PAGE 24


SYMBOL TABLE
  LABEL                             VALUE 

DECREMENT_ANALOG                  0000026A
DONE                              00000001
D_A                               00000005
D_NOT_A                           00000005
ECCP1AS                           00000FB6
ECCP1CON                          00000FBD
ECCP1DEL                          00000FB7
ECCPAS0                           00000004
ECCPAS1                           00000005
ECCPAS2                           00000006
ECCPASE                           00000007
EEADR                             00000FA9
EECON1                            00000FA6
EECON2                            00000FA7
EEDATA                            00000FA8
EEIE                              00000004
EEIF                              00000004
EEIP                              00000004
EEPGD                             00000007
END_LOOP_MAIN                     000005EA
ENREGISTRAR                       00000188
ENVIA_K                           000004C2
ESPERA_CONVERSIO                  0000029E
ESPERA_DESCLICAR_CANVI_A_AUTO     00000202
ESPERA_DESCLICAR_CANVI_A_MANUAL   00000218
ESPERA_DESCLICAR_MODE_TOCAR       000003B0
ESPERA_GRAUS                      00000158
ESPERA_GRAUS2                     0000017C
ESPERA_MS                         000005B2
ESPERA_TX                         000003DA
ESPERA_meitat                     00000542
EUSART_INPUT                      0000000B
FAIL_INPUT                        0000046E
FAST                              00000001
FERR                              00000002
FINAL_T                           00000302
FI_SONG                           000004EC
FLAGS2                            00000020
FLAGS3                            00000021
FLAGS4                            00000022
FLAG_ESPERAH                      00000028
FLAG_ESPERAL                      00000027
FLAG_TEMPS                        00000029
FLT0                              00000000
FLTS                              00000002
FREE                              00000004
FSR0                              00000000
FSR0H                             00000FEA
FSR0L                             00000FE9
FSR1                              00000001
FSR1H                             00000FE2
FSR1L                             00000FE1
FSR2                              00000002
MPASM 5.86             NEWPIC_8B_GENERAL.ASM   3-15-2022  12:40:48         PAGE 25


SYMBOL TABLE
  LABEL                             VALUE 

FSR2H                             00000FDA
FSR2L                             00000FD9
FUNCIO_MODE_AUTOMATIC             000004CC
FUNCIO_MODE_MANUAL                000001A4
GCEN                              00000007
GIE                               00000007
GIEH                              00000007
GIEL                              00000006
GIE_GIEH                          00000007
GO                                00000001
GO_DONE                           00000001
GO_NOT_DONE                       00000001
HIGH_RSI                          0000001A
HLVDCON                           00000FD2
HLVDEN                            00000004
HLVDIE                            00000002
HLVDIF                            00000002
HLVDIN                            00000005
HLVDIP                            00000002
HLVDL0                            00000000
HLVDL1                            00000001
HLVDL2                            00000002
HLVDL3                            00000003
IBF                               00000007
IBOV                              00000005
IDLEN                             00000007
INCREMENTA_HIGH                   00000124
INCREMENTA_LOW                    000000FE
INCREMENTA_VAR                    00000130
INCREMENT_ANALOG                  00000248
INDF0                             00000FEF
INDF1                             00000FE7
INDF2                             00000FDF
INIT_EUSART                       00000082
INIT_VARS                         00000046
INT0                              00000000
INT0E                             00000004
INT0F                             00000001
INT0IE                            00000004
INT0IF                            00000001
INT1                              00000001
INT1E                             00000003
INT1F                             00000000
INT1IE                            00000003
INT1IF                            00000000
INT1IP                            00000006
INT1P                             00000006
INT2                              00000002
INT2E                             00000004
INT2F                             00000001
INT2IE                            00000004
INT2IF                            00000001
INT2IP                            00000007
MPASM 5.86             NEWPIC_8B_GENERAL.ASM   3-15-2022  12:40:48         PAGE 26


SYMBOL TABLE
  LABEL                             VALUE 

INT2P                             00000007
INTCON                            00000FF2
INTCON2                           00000FF1
INTCON3                           00000FF0
INTEDG0                           00000006
INTEDG1                           00000005
INTEDG2                           00000004
INTSRC                            00000007
IOFS                              00000002
IPEN                              00000007
IPR1                              00000F9F
IPR2                              00000FA2
IRCF0                             00000004
IRCF1                             00000005
IRCF2                             00000006
IRVST                             00000005
KBI0                              00000004
KBI1                              00000005
KBI2                              00000006
KBI3                              00000007
LAST_ITERACIO                     0000058E
LATA                              00000F89
LATA0                             00000000
LATA1                             00000001
LATA2                             00000002
LATA3                             00000003
LATA4                             00000004
LATA5                             00000005
LATA6                             00000006
LATA7                             00000007
LATB                              00000F8A
LATB0                             00000000
LATB1                             00000001
LATB2                             00000002
LATB3                             00000003
LATB4                             00000004
LATB5                             00000005
LATB6                             00000006
LATB7                             00000007
LATC                              00000F8B
LATC0                             00000000
LATC1                             00000001
LATC2                             00000002
LATC3                             00000003
LATC4                             00000004
LATC5                             00000005
LATC6                             00000006
LATC7                             00000007
LATD                              00000F8C
LATD0                             00000000
LATD1                             00000001
LATD2                             00000002
LATD3                             00000003
MPASM 5.86             NEWPIC_8B_GENERAL.ASM   3-15-2022  12:40:48         PAGE 27


SYMBOL TABLE
  LABEL                             VALUE 

LATD4                             00000004
LATD5                             00000005
LATD6                             00000006
LATD7                             00000007
LATE                              00000F8D
LATE0                             00000000
LATE1                             00000001
LATE2                             00000002
LOOP_ANALOG                       0000022A
LOOP_CONVER                       0000022C
LOOP_CWAIT                        00000254
LOOP_DWAIT                        00000276
LOOP_ESPERAPWM                    00000146
LOOP_ESPERAPWM2                   0000016A
LOOP_ESPERA_BAIXADA               0000049C
LOOP_ESPERA_BAIXADA_2             000004A0
LOOP_ESPERA_BAIXADA_3             000004A4
LOOP_ESPERA_X                     00000474
LOOP_ESPERA_X_2                   00000478
LOOP_ESPERA_X_3                   0000047C
LOOP_GRAUS                        0000015C
LOOP_GRAUS2                       00000180
LOOP_LLEGEIX                      00000564
LOOP_MAIN                         000005E0
LOOP_MS                           000005BA
LOOP_TEMPS                        00000578
LOOP_WAIT                         00000252
LOOP_WAITD                        00000274
LVDCON                            00000FD2
LVDEN                             00000004
LVDIE                             00000002
LVDIF                             00000002
LVDIP                             00000002
LVDL0                             00000000
LVDL1                             00000001
LVDL2                             00000002
LVDL3                             00000003
LVV0                              00000000
LVV1                              00000001
LVV2                              00000002
LVV3                              00000003
MAIN                              000005C8
MCLR                              00000003
MINUT                             000000F8
MIRA_MODE_ENTRADA                 0000039C
MODE_ACTUAL                       0000000A
MOSTRAR_NOTA                      00000310
MOSTRA_A                          0000034C
MOSTRA_B                          00000356
MOSTRA_C                          00000360
MOSTRA_C_MENOR                    00000392
MOSTRA_D                          0000036A
MOSTRA_E                          00000374
MPASM 5.86             NEWPIC_8B_GENERAL.ASM   3-15-2022  12:40:48         PAGE 28


SYMBOL TABLE
  LABEL                             VALUE 

MOSTRA_F                          0000037E
MOSTRA_G                          00000388
MOVIMENT_JAVA_MANUAL              000003E2
MOVIMENT_JAVA_MANUAL_SI_ENREGIST  000003EA
MOVIMENT_JOYSTICK                 00000220
N                                 00000004
NEXT                              00000126
NEXT_A                            0000044E
NEXT_B                            0000045E
NEXT_C                            000003FE
NEXT_D                            0000040E
NEXT_E                            0000041E
NEXT_F                            0000042E
NEXT_G                            0000043E
NOTA_RAM                          00000024
NOT_A                             00000005
NOT_ADDRESS                       00000005
NOT_BOR                           00000000
NOT_CS                            00000002
NOT_DONE                          00000001
NOT_MCLR                          00000003
NOT_PD                            00000002
NOT_POR                           00000001
NOT_RBPU                          00000007
NOT_RD                            00000000
NOT_RI                            00000004
NOT_SS                            00000005
NOT_T1SYNC                        00000002
NOT_T3SYNC                        00000002
NOT_TO                            00000003
NOT_W                             00000002
NOT_WR                            00000001
NOT_WRITE                         00000002
OBF                               00000006
OERR                              00000001
OFFSET                            00000023
OSC1                              00000007
OSC2                              00000006
OSCCON                            00000FD3
OSCFIE                            00000007
OSCFIF                            00000007
OSCFIP                            00000007
OSCTUNE                           00000F9B
OSTS                              00000003
OV                                00000003
OVER_FLOW                         00000110
P                                 00000004
P1A                               00000002
P1B                               00000005
P1C                               00000006
P1D                               00000007
P1M0                              00000006
P1M1                              00000007
MPASM 5.86             NEWPIC_8B_GENERAL.ASM   3-15-2022  12:40:48         PAGE 29


SYMBOL TABLE
  LABEL                             VALUE 

PC                                00000FF9
PCFG0                             00000000
PCFG1                             00000001
PCFG2                             00000002
PCFG3                             00000003
PCL                               00000FF9
PCLATH                            00000FFA
PCLATU                            00000FFB
PD                                00000002
PDC0                              00000000
PDC1                              00000001
PDC2                              00000002
PDC3                              00000003
PDC4                              00000004
PDC5                              00000005
PDC6                              00000006
PEIE                              00000006
PEIE_GIEL                         00000006
PEN                               00000002
PGC                               00000006
PGD                               00000007
PGM                               00000005
PICAR_NOTA                        00000298
PIE1                              00000F9D
PIE2                              00000FA0
PIR1                              00000F9E
PIR2                              00000FA1
PLAY_RAM_SONG                     00000554
PLLEN                             00000006
PLUSW0                            00000FEB
PLUSW1                            00000FE3
PLUSW2                            00000FDB
POLLANCRE                         000001B8
POLSADOR_REBOTS_CANVI_A_AUTO      000001F4
POLSADOR_REBOTS_CANVI_A_MANUAL    0000020A
POR                               00000001
PORTA                             00000F80
PORTB                             00000F81
PORTC                             00000F82
PORTD                             00000F83
PORTE                             00000F84
POSTDEC0                          00000FED
POSTDEC1                          00000FE5
POSTDEC2                          00000FDD
POSTINC0                          00000FEE
POSTINC1                          00000FE6
POSTINC2                          00000FDE
PR2                               00000FCB
PREINC0                           00000FEC
PREINC1                           00000FE4
PREINC2                           00000FDC
PRE_AUTO_MODE                     000004F0
PRE_AUTO_MODE_CHECK_PIR           00000504
MPASM 5.86             NEWPIC_8B_GENERAL.ASM   3-15-2022  12:40:48         PAGE 30


SYMBOL TABLE
  LABEL                             VALUE 

PRE_AUTO_MODE_CHECK_PLAY_BUTTON   000004FE
PROD                              00000FF3
PRODH                             00000FF4
PRODL                             00000FF3
PRSEN                             00000007
PSA                               00000003
PSP0                              00000000
PSP1                              00000001
PSP2                              00000002
PSP3                              00000003
PSP4                              00000004
PSP5                              00000005
PSP6                              00000006
PSP7                              00000007
PSPIE                             00000007
PSPIF                             00000007
PSPIP                             00000007
PSPMODE                           00000004
PSSAC0                            00000002
PSSAC1                            00000003
PSSBD0                            00000000
PSSBD1                            00000001
PWM                               00000140
PWM1CON                           00000FB7
PWM2                              00000164
PWM_AUX                           00000011
PWM_AUX2                          00000018
PWM_VAR                           00000010
PWM_VAR2                          00000017
R                                 00000002
RA0                               00000000
RA1                               00000001
RA2                               00000002
RA3                               00000003
RA4                               00000004
RA5                               00000005
RA6                               00000006
RA7                               00000007
RB0                               00000000
RB1                               00000001
RB2                               00000002
RB3                               00000003
RB4                               00000004
RB5                               00000005
RB6                               00000006
RB7                               00000007
RBIE                              00000003
RBIF                              00000000
RBIP                              00000000
RBPU                              00000007
RC0                               00000000
RC1                               00000001
RC2                               00000002
MPASM 5.86             NEWPIC_8B_GENERAL.ASM   3-15-2022  12:40:48         PAGE 31


SYMBOL TABLE
  LABEL                             VALUE 

RC3                               00000003
RC4                               00000004
RC5                               00000005
RC6                               00000006
RC7                               00000007
RCEN                              00000003
RCIDL                             00000006
RCIE                              00000005
RCIF                              00000005
RCIP                              00000005
RCMT                              00000006
RCON                              00000FD0
RCREG                             00000FAE
RCSTA                             00000FAB
RD                                00000000
RD0                               00000000
RD1                               00000001
RD16                              00000007
RD2                               00000002
RD3                               00000003
RD4                               00000004
RD5                               00000005
RD6                               00000006
RD7                               00000007
RE0                               00000000
RE1                               00000001
RE2                               00000002
RE3                               00000003
RECORD                            000003C2
REPRODUINT_AUTO_BUCLE             000004DC
RESET_VAR                         0000013C
RESET_VARR                        000005A6
RESTA                             00000292
RI                                00000004
RSEN                              00000001
RX                                00000007
RX9                               00000006
RX9D                              00000000
RXDTP                             00000005
R_NOT_W                           00000002
R_W                               00000002
S                                 00000003
SBOREN                            00000006
SCK                               00000003
SCKP                              00000004
SCL                               00000003
SCS0                              00000000
SCS1                              00000001
SDA                               00000004
SDI                               00000004
SDO                               00000005
SEN                               00000000
SENDB                             00000003
MPASM 5.86             NEWPIC_8B_GENERAL.ASM   3-15-2022  12:40:48         PAGE 32


SYMBOL TABLE
  LABEL                             VALUE 

SEVEN_SEG_A                       00000005
SEVEN_SEG_B                       00000006
SEVEN_SEG_C                       00000000
SEVEN_SEG_C_MENOR                 00000007
SEVEN_SEG_D                       00000001
SEVEN_SEG_E                       00000002
SEVEN_SEG_F                       00000003
SEVEN_SEG_G                       00000004
SMP                               00000007
SP0                               00000000
SP1                               00000001
SP2                               00000002
SP3                               00000003
SP4                               00000004
SPBRG                             00000FAF
SPBRGH                            00000FB0
SPEN                              00000007
SREN                              00000005
SSPADD                            00000FC8
SSPBUF                            00000FC9
SSPCON1                           00000FC6
SSPCON2                           00000FC5
SSPEN                             00000005
SSPIE                             00000003
SSPIF                             00000003
SSPIP                             00000003
SSPM0                             00000000
SSPM1                             00000001
SSPM2                             00000002
SSPM3                             00000003
SSPOV                             00000006
SSPSTAT                           00000FC7
STATUS                            00000FD8
STKFUL                            00000007
STKOVF                            00000007
STKPTR                            00000FFC
STKUNF                            00000006
SUMA                              0000028C
SWDTE                             00000000
SWDTEN                            00000000
SYNC                              00000004
T016BIT                           00000006
T08BIT                            00000006
T0CKI                             00000004
T0CON                             00000FD5
T0CS                              00000005
T0IE                              00000005
T0IF                              00000002
T0PS0                             00000000
T0PS1                             00000001
T0PS2                             00000002
T0SE                              00000004
T13CKI                            00000000
MPASM 5.86             NEWPIC_8B_GENERAL.ASM   3-15-2022  12:40:48         PAGE 33


SYMBOL TABLE
  LABEL                             VALUE 

T1CKI                             00000000
T1CKPS0                           00000004
T1CKPS1                           00000005
T1CON                             00000FCD
T1OSCEN                           00000003
T1OSI                             00000001
T1OSO                             00000000
T1RUN                             00000006
T1SYNC                            00000002
T2CKPS0                           00000000
T2CKPS1                           00000001
T2CON                             00000FCA
T2OUTPS0                          00000003
T2OUTPS1                          00000004
T2OUTPS2                          00000005
T2OUTPS3                          00000006
T3CCP1                            00000003
T3CCP2                            00000006
T3CKPS0                           00000004
T3CKPS1                           00000005
T3CON                             00000FB1
T3SYNC                            00000002
TABLAT                            00000FF5
TBLPTR                            00000FF6
TBLPTRH                           00000FF7
TBLPTRL                           00000FF6
TBLPTRU                           00000FF8
TEMPS_HIGH                        0000001F
TEMPS_HIGH_RAM                    00000025
TEMPS_LOW                         0000001E
TEMPS_LOW_RAM                     00000026
TMP                               00000013
TMP2                              00000014
TMP3                              0000000C
TMP4                              0000000D
TMP_timer                         00000008
TMR0                              00000FD6
TMR0H                             00000FD7
TMR0IE                            00000005
TMR0IF                            00000002
TMR0IP                            00000002
TMR0L                             00000FD6
TMR0ON                            00000007
TMR1                              00000FCE
TMR1CS                            00000001
TMR1H                             00000FCF
TMR1IE                            00000000
TMR1IF                            00000000
TMR1IP                            00000000
TMR1L                             00000FCE
TMR1ON                            00000000
TMR2                              00000FCC
TMR2IE                            00000001
MPASM 5.86             NEWPIC_8B_GENERAL.ASM   3-15-2022  12:40:48         PAGE 34


SYMBOL TABLE
  LABEL                             VALUE 

TMR2IF                            00000001
TMR2IP                            00000001
TMR2ON                            00000002
TMR3                              00000FB2
TMR3CS                            00000001
TMR3H                             00000FB3
TMR3IE                            00000001
TMR3IF                            00000001
TMR3IP                            00000001
TMR3L                             00000FB2
TMR3ON                            00000000
TO                                00000003
TOS                               00000FFD
TOSH                              00000FFE
TOSL                              00000FFD
TOSU                              00000FFF
TOUTPS0                           00000003
TOUTPS1                           00000004
TOUTPS2                           00000005
TOUTPS3                           00000006
TRISA                             00000F92
TRISA0                            00000000
TRISA1                            00000001
TRISA2                            00000002
TRISA3                            00000003
TRISA4                            00000004
TRISA5                            00000005
TRISA6                            00000006
TRISA7                            00000007
TRISB                             00000F93
TRISB0                            00000000
TRISB1                            00000001
TRISB2                            00000002
TRISB3                            00000003
TRISB4                            00000004
TRISB5                            00000005
TRISB6                            00000006
TRISB7                            00000007
TRISC                             00000F94
TRISC0                            00000000
TRISC1                            00000001
TRISC2                            00000002
TRISC3                            00000003
TRISC4                            00000004
TRISC5                            00000005
TRISC6                            00000006
TRISC7                            00000007
TRISD                             00000F95
TRISD0                            00000000
TRISD1                            00000001
TRISD2                            00000002
TRISD3                            00000003
TRISD4                            00000004
MPASM 5.86             NEWPIC_8B_GENERAL.ASM   3-15-2022  12:40:48         PAGE 35


SYMBOL TABLE
  LABEL                             VALUE 

TRISD5                            00000005
TRISD6                            00000006
TRISD7                            00000007
TRISE                             00000F96
TRISE0                            00000000
TRISE1                            00000001
TRISE2                            00000002
TRMT                              00000001
TROBAT_NOTA                       00000470
TUN0                              00000000
TUN1                              00000001
TUN2                              00000002
TUN3                              00000003
TUN4                              00000004
TX                                00000006
TX9                               00000006
TX9D                              00000000
TXCKP                             00000004
TXEN                              00000005
TXIE                              00000004
TXIF                              00000004
TXIP                              00000004
TXREG                             00000FAD
TXSTA                             00000FAC
T_TROBAT                          000002D2
UA                                00000001
ULTIMA_NOTA                       0000001C
VAR_COMP                          0000000F
VAR_COMP2                         00000016
VAR_CONVER                        0000000E
VAR_CONVER2                       00000015
VAR_TOKEN2                        0000001B
VCFG0                             00000004
VCFG1                             00000005
VDIRMAG                           00000007
VERD                              000001AE
VERMELL                           000001B4
VPP                               00000003
VREFM                             00000002
VREFP                             00000003
W                                 00000000
WCOL                              00000007
WDTCON                            00000FD1
WR                                00000001
WREG                              00000FE8
WREN                              00000002
WRERR                             00000003
WUE                               00000001
Z                                 00000002
ZONA_ENREGISTRAR                  000002EC
_BBSIZ_BB1K_4L                    000000FF
_BBSIZ_BB256_4L                   000000CF
_BBSIZ_BB512_4L                   000000DF
MPASM 5.86             NEWPIC_8B_GENERAL.ASM   3-15-2022  12:40:48         PAGE 36


SYMBOL TABLE
  LABEL                             VALUE 

_BORV_0_2L                        000000E7
_BORV_1_2L                        000000EF
_BORV_2_2L                        000000F7
_BORV_3_2L                        000000FF
_BOR_NOSLP_2L                     000000FD
_BOR_OFF_2L                       000000F9
_BOR_ON_2L                        000000FF
_BOR_SOFT_2L                      000000FB
_CCP2MX_RB3_3H                    000000FE
_CCP2MX_RC1_3H                    000000FF
_CONFIG1H                         00300001
_CONFIG2H                         00300003
_CONFIG2L                         00300002
_CONFIG3H                         00300005
_CONFIG4L                         00300006
_CONFIG5H                         00300009
_CONFIG5L                         00300008
_CONFIG6H                         0030000B
_CONFIG6L                         0030000A
_CONFIG7H                         0030000D
_CONFIG7L                         0030000C
_CP0_OFF_5L                       000000FF
_CP0_ON_5L                        000000FE
_CP1_OFF_5L                       000000FF
_CP1_ON_5L                        000000FD
_CPB_OFF_5H                       000000FF
_CPB_ON_5H                        000000BF
_CPD_OFF_5H                       000000FF
_CPD_ON_5H                        0000007F
_DEBUG_OFF_4L                     000000FF
_DEBUG_ON_4L                      0000007F
_DEVID1                           003FFFFE
_DEVID2                           003FFFFF
_EBTR0_OFF_7L                     000000FF
_EBTR0_ON_7L                      000000FE
_EBTR1_OFF_7L                     000000FF
_EBTR1_ON_7L                      000000FD
_EBTRB_OFF_7H                     000000FF
_EBTRB_ON_7H                      000000BF
_FCMEN_OFF_1H                     000000BF
_FCMEN_ON_1H                      000000FF
_IDLOC0                           00200000
_IDLOC1                           00200001
_IDLOC2                           00200002
_IDLOC3                           00200003
_IDLOC4                           00200004
_IDLOC5                           00200005
_IDLOC6                           00200006
_IDLOC7                           00200007
_IESO_OFF_1H                      0000007F
_IESO_ON_1H                       000000FF
_LPT1OSC_OFF_3H                   000000FB
_LPT1OSC_ON_3H                    000000FF
MPASM 5.86             NEWPIC_8B_GENERAL.ASM   3-15-2022  12:40:48         PAGE 37


SYMBOL TABLE
  LABEL                             VALUE 

_LVP_OFF_4L                       000000FB
_LVP_ON_4L                        000000FF
_MCLRE_OFF_3H                     0000007F
_MCLRE_ON_3H                      000000FF
_OSC_ECIO_1H                      000000F5
_OSC_EC_1H                        000000F4
_OSC_HSPLL_1H                     000000F6
_OSC_HS_1H                        000000F2
_OSC_INTIO1_1H                    000000F9
_OSC_INTIO2_1H                    000000F8
_OSC_LP_1H                        000000F0
_OSC_RCIO_1H                      000000F7
_OSC_RC_1H                        000000F3
_OSC_XT_1H                        000000F1
_PBADEN_ANA_3H                    000000FF
_PBADEN_DIG_3H                    000000FD
_PWRT_OFF_2L                      000000FF
_PWRT_ON_2L                       000000FE
_STVREN_OFF_4L                    000000FE
_STVREN_ON_4L                     000000FF
_WDTPS_1024_2H                    000000F5
_WDTPS_128_2H                     000000EF
_WDTPS_16384_2H                   000000FD
_WDTPS_16_2H                      000000E9
_WDTPS_1_2H                       000000E1
_WDTPS_2048_2H                    000000F7
_WDTPS_256_2H                     000000F1
_WDTPS_2_2H                       000000E3
_WDTPS_32768_2H                   000000FF
_WDTPS_32_2H                      000000EB
_WDTPS_4096_2H                    000000F9
_WDTPS_4_2H                       000000E5
_WDTPS_512_2H                     000000F3
_WDTPS_64_2H                      000000ED
_WDTPS_8192_2H                    000000FB
_WDTPS_8_2H                       000000E7
_WDT_OFF_2H                       000000FE
_WDT_ON_2H                        000000FF
_WRT0_OFF_6L                      000000FF
_WRT0_ON_6L                       000000FE
_WRT1_OFF_6L                      000000FF
_WRT1_ON_6L                       000000FD
_WRTB_OFF_6H                      000000FF
_WRTB_ON_6H                       000000BF
_WRTC_OFF_6H                      000000FF
_WRTC_ON_6H                       000000DF
_WRTD_OFF_6H                      000000FF
_WRTD_ON_6H                       0000007F
_XINST_OFF_4L                     000000BF
_XINST_ON_4L                      000000FF
__18F4321                         00000001
__DEBUG                           
__MPLAB_DEBUGGER_PK3              1
MPASM 5.86             NEWPIC_8B_GENERAL.ASM   3-15-2022  12:40:48         PAGE 38






Errors   :     0
Warnings :    65 reported,     0 suppressed
Messages :     0 reported,     0 suppressed

